Archive member included to satisfy reference by file (symbol)

c:/program files/microchip/xc32/v4.20/bin/bin/../../lib/gcc/pic32c/8.3.1/../../../../pic32c/lib/thumb/v7e-m+fp/hard\libpic32c.a(data_init_wrapper.o)
                              build/mcp9808/production/_ext/519814254/startup_xc32.o (__pic32c_data_initialization)
c:/program files/microchip/xc32/v4.20/bin/bin/../../lib/gcc/pic32c/8.3.1/../../../../pic32c/lib/thumb/v7e-m+fp/hard\libpic32c.a(data_init_0_1.o)
                              c:/program files/microchip/xc32/v4.20/bin/bin/../../lib/gcc/pic32c/8.3.1/../../../../pic32c/lib/thumb/v7e-m+fp/hard\libpic32c.a(data_init_wrapper.o) (__pic32c_data_initialization_impl)
c:/program files/microchip/xc32/v4.20/bin/bin/../../lib/gcc/pic32c/8.3.1/../../../../pic32c/lib/thumb/v7e-m+fp/hard\libc-musl.a(__libc_start_main.o)
                              build/mcp9808/production/_ext/519814254/startup_xc32.o (__libc_init_array)
c:/program files/microchip/xc32/v4.20/bin/bin/../../lib/gcc/pic32c/8.3.1/../../../../pic32c/lib/thumb/v7e-m+fp/hard\libc-musl.a(libc.o)
                              c:/program files/microchip/xc32/v4.20/bin/bin/../../lib/gcc/pic32c/8.3.1/../../../../pic32c/lib/thumb/v7e-m+fp/hard\libc-musl.a(__libc_start_main.o) (__progname_full)
c:/program files/microchip/xc32/v4.20/bin/bin/../../lib/gcc/pic32c/8.3.1/../../../../pic32c/lib/thumb/v7e-m+fp/hard\libc-musl.a(malloc.o)
                              build/mcp9808/production/_ext/1427623807/sys_command.o (free)
c:/program files/microchip/xc32/v4.20/bin/bin/../../lib/gcc/pic32c/8.3.1/../../../../pic32c/lib/thumb/v7e-m+fp/hard\libc-musl.a(expand_heap.o)
                              c:/program files/microchip/xc32/v4.20/bin/bin/../../lib/gcc/pic32c/8.3.1/../../../../pic32c/lib/thumb/v7e-m+fp/hard\libc-musl.a(malloc.o) (__expand_heap)
c:/program files/microchip/xc32/v4.20/bin/bin/../../lib/gcc/pic32c/8.3.1/../../../../pic32c/lib/thumb/v7e-m+fp/hard\libc-musl.a(vsnprintf.o)
                              build/mcp9808/production/_ext/1427623807/sys_command.o (vsnprintf)
c:/program files/microchip/xc32/v4.20/bin/bin/../../lib/gcc/pic32c/8.3.1/../../../../pic32c/lib/thumb/v7e-m+fp/hard\libc-musl.a(puts.o)
                              build/mcp9808/production/_ext/1360937237/app_mcp9808.o (puts)
c:/program files/microchip/xc32/v4.20/bin/bin/../../lib/gcc/pic32c/8.3.1/../../../../pic32c/lib/thumb/v7e-m+fp/hard\libc-musl.a(sprintf.o)
                              (sprintf)
c:/program files/microchip/xc32/v4.20/bin/bin/../../lib/gcc/pic32c/8.3.1/../../../../pic32c/lib/thumb/v7e-m+fp/hard\libc-musl.a(vsprintf.o)
                              c:/program files/microchip/xc32/v4.20/bin/bin/../../lib/gcc/pic32c/8.3.1/../../../../pic32c/lib/thumb/v7e-m+fp/hard\libc-musl.a(sprintf.o) (vsprintf)
c:/program files/microchip/xc32/v4.20/bin/bin/../../lib/gcc/pic32c/8.3.1/../../../../pic32c/lib/thumb/v7e-m+fp/hard\libc-musl.a(memcpy.o)
                              build/mcp9808/production/_ext/1243884746/drv_mcp9808.o (memcpy)
c:/program files/microchip/xc32/v4.20/bin/bin/../../lib/gcc/pic32c/8.3.1/../../../../pic32c/lib/thumb/v7e-m+fp/hard\libc-musl.a(memset.o)
                              build/mcp9808/production/_ext/1427623807/sys_command.o (memset)
c:/program files/microchip/xc32/v4.20/bin/bin/../../lib/gcc/pic32c/8.3.1/../../../../pic32c/lib/thumb/v7e-m+fp/hard\libc-musl.a(strlen.o)
                              build/mcp9808/production/_ext/1427623807/sys_command.o (strlen)
c:/program files/microchip/xc32/v4.20/bin/bin/../../lib/gcc/pic32c/8.3.1/../../../../pic32c/lib/thumb/v7e-m+fp/hard\libc-musl.a(strchr.o)
                              build/mcp9808/production/_ext/1427623807/sys_command.o (strchr)
c:/program files/microchip/xc32/v4.20/bin/bin/../../lib/gcc/pic32c/8.3.1/../../../../pic32c/lib/thumb/v7e-m+fp/hard\libc-musl.a(strchrnul.o)
                              c:/program files/microchip/xc32/v4.20/bin/bin/../../lib/gcc/pic32c/8.3.1/../../../../pic32c/lib/thumb/v7e-m+fp/hard\libc-musl.a(strchr.o) (__strchrnul)
c:/program files/microchip/xc32/v4.20/bin/bin/../../lib/gcc/pic32c/8.3.1/../../../../pic32c/lib/thumb/v7e-m+fp/hard\libc-musl.a(strcmp.o)
                              build/mcp9808/production/_ext/1427623807/sys_command.o (strcmp)
c:/program files/microchip/xc32/v4.20/bin/bin/../../lib/gcc/pic32c/8.3.1/../../../../pic32c/lib/thumb/v7e-m+fp/hard\libc-musl.a(strcpy.o)
                              build/mcp9808/production/_ext/1427623807/sys_command.o (strcpy)
c:/program files/microchip/xc32/v4.20/bin/bin/../../lib/gcc/pic32c/8.3.1/../../../../pic32c/lib/thumb/v7e-m+fp/hard\libc-musl.a(strncmp.o)
                              build/mcp9808/production/_ext/1427623807/sys_command.o (strncmp)
c:/program files/microchip/xc32/v4.20/bin/bin/../../lib/gcc/pic32c/8.3.1/../../../../pic32c/lib/thumb/v7e-m+fp/hard\libc-musl.a(strncpy.o)
                              build/mcp9808/production/_ext/1427623807/sys_command.o (strncpy)
c:/program files/microchip/xc32/v4.20/bin/bin/../../lib/gcc/pic32c/8.3.1/../../../../pic32c/lib/thumb/v7e-m+fp/hard\libc-musl.a(strtok.o)
                              build/mcp9808/production/_ext/1427623807/sys_command.o (strtok)
c:/program files/microchip/xc32/v4.20/bin/bin/../../lib/gcc/pic32c/8.3.1/../../../../pic32c/lib/thumb/v7e-m+fp/hard\libc-musl.a(__environ.o)
                              c:/program files/microchip/xc32/v4.20/bin/bin/../../lib/gcc/pic32c/8.3.1/../../../../pic32c/lib/thumb/v7e-m+fp/hard\libc-musl.a(__libc_start_main.o) (__environ)
c:/program files/microchip/xc32/v4.20/bin/bin/../../lib/gcc/pic32c/8.3.1/../../../../pic32c/lib/thumb/v7e-m+fp/hard\libc-musl.a(__errno_location.o)
                              c:/program files/microchip/xc32/v4.20/bin/bin/../../lib/gcc/pic32c/8.3.1/../../../../pic32c/lib/thumb/v7e-m+fp/hard\libc-musl.a(malloc.o) (__errno_val)
c:/program files/microchip/xc32/v4.20/bin/bin/../../lib/gcc/pic32c/8.3.1/../../../../pic32c/lib/thumb/v7e-m+fp/hard\libc-musl.a(fputs.o)
                              c:/program files/microchip/xc32/v4.20/bin/bin/../../lib/gcc/pic32c/8.3.1/../../../../pic32c/lib/thumb/v7e-m+fp/hard\libc-musl.a(puts.o) (fputs)
c:/program files/microchip/xc32/v4.20/bin/bin/../../lib/gcc/pic32c/8.3.1/../../../../pic32c/lib/thumb/v7e-m+fp/hard\libc-musl.a(fwrite.o)
                              c:/program files/microchip/xc32/v4.20/bin/bin/../../lib/gcc/pic32c/8.3.1/../../../../pic32c/lib/thumb/v7e-m+fp/hard\libc-musl.a(fputs.o) (fwrite)
c:/program files/microchip/xc32/v4.20/bin/bin/../../lib/gcc/pic32c/8.3.1/../../../../pic32c/lib/thumb/v7e-m+fp/hard\libc-musl.a(putc.o)
                              c:/program files/microchip/xc32/v4.20/bin/bin/../../lib/gcc/pic32c/8.3.1/../../../../pic32c/lib/thumb/v7e-m+fp/hard\libc-musl.a(puts.o) (putc_unlocked)
c:/program files/microchip/xc32/v4.20/bin/bin/../../lib/gcc/pic32c/8.3.1/../../../../pic32c/lib/thumb/v7e-m+fp/hard\libc-musl.a(stdout.o)
                              c:/program files/microchip/xc32/v4.20/bin/bin/../../lib/gcc/pic32c/8.3.1/../../../../pic32c/lib/thumb/v7e-m+fp/hard\libc-musl.a(puts.o) (_stdout)
c:/program files/microchip/xc32/v4.20/bin/bin/../../lib/gcc/pic32c/8.3.1/../../../../pic32c/lib/thumb/v7e-m+fp/hard\libc-musl.a(vfprintf.o)
                              c:/program files/microchip/xc32/v4.20/bin/bin/../../lib/gcc/pic32c/8.3.1/../../../../pic32c/lib/thumb/v7e-m+fp/hard\libc-musl.a(vsnprintf.o) (vfprintf)
c:/program files/microchip/xc32/v4.20/bin/bin/../../lib/gcc/pic32c/8.3.1/../../../../pic32c/lib/thumb/v7e-m+fp/hard\libc-musl.a(stpcpy.o)
                              c:/program files/microchip/xc32/v4.20/bin/bin/../../lib/gcc/pic32c/8.3.1/../../../../pic32c/lib/thumb/v7e-m+fp/hard\libc-musl.a(strcpy.o) (__stpcpy)
c:/program files/microchip/xc32/v4.20/bin/bin/../../lib/gcc/pic32c/8.3.1/../../../../pic32c/lib/thumb/v7e-m+fp/hard\libc-musl.a(stpncpy.o)
                              c:/program files/microchip/xc32/v4.20/bin/bin/../../lib/gcc/pic32c/8.3.1/../../../../pic32c/lib/thumb/v7e-m+fp/hard\libc-musl.a(strncpy.o) (__stpncpy)
c:/program files/microchip/xc32/v4.20/bin/bin/../../lib/gcc/pic32c/8.3.1/../../../../pic32c/lib/thumb/v7e-m+fp/hard\libc-musl.a(strcspn.o)
                              c:/program files/microchip/xc32/v4.20/bin/bin/../../lib/gcc/pic32c/8.3.1/../../../../pic32c/lib/thumb/v7e-m+fp/hard\libc-musl.a(strtok.o) (strcspn)
c:/program files/microchip/xc32/v4.20/bin/bin/../../lib/gcc/pic32c/8.3.1/../../../../pic32c/lib/thumb/v7e-m+fp/hard\libc-musl.a(strspn.o)
                              c:/program files/microchip/xc32/v4.20/bin/bin/../../lib/gcc/pic32c/8.3.1/../../../../pic32c/lib/thumb/v7e-m+fp/hard\libc-musl.a(strtok.o) (strspn)
c:/program files/microchip/xc32/v4.20/bin/bin/../../lib/gcc/pic32c/8.3.1/../../../../pic32c/lib/thumb/v7e-m+fp/hard\libc-musl.a(__io_fmt_needed.o)
                              c:/program files/microchip/xc32/v4.20/bin/bin/../../lib/gcc/pic32c/8.3.1/../../../../pic32c/lib/thumb/v7e-m+fp/hard\libc-musl.a(vfprintf.o) (__io_fmt_needed)
c:/program files/microchip/xc32/v4.20/bin/bin/../../lib/gcc/pic32c/8.3.1/../../../../pic32c/lib/thumb/v7e-m+fp/hard\libc-musl.a(__io_init_needed.o)
                              c:/program files/microchip/xc32/v4.20/bin/bin/../../lib/gcc/pic32c/8.3.1/../../../../pic32c/lib/thumb/v7e-m+fp/hard\libc-musl.a(stdout.o) (__io_init_needed)
c:/program files/microchip/xc32/v4.20/bin/bin/../../lib/gcc/pic32c/8.3.1/../../../../pic32c/lib/thumb/v7e-m+fp/hard\libc-musl.a(__out.o)
                              c:/program files/microchip/xc32/v4.20/bin/bin/../../lib/gcc/pic32c/8.3.1/../../../../pic32c/lib/thumb/v7e-m+fp/hard\libc-musl.a(putc.o) (__out_needed)
c:/program files/microchip/xc32/v4.20/bin/bin/../../lib/gcc/pic32c/8.3.1/../../../../pic32c/lib/thumb/v7e-m+fp/hard\libc-musl.a(__pop_float.o)
                              c:/program files/microchip/xc32/v4.20/bin/bin/../../lib/gcc/pic32c/8.3.1/../../../../pic32c/lib/thumb/v7e-m+fp/hard\libc-musl.a(__io_fmt_needed.o) (__pop_float_needed)
c:/program files/microchip/xc32/v4.20/bin/bin/../../lib/gcc/pic32c/8.3.1/../../../../pic32c/lib/thumb/v7e-m+fp/hard\libc-musl.a(__pop_int.o)
                              c:/program files/microchip/xc32/v4.20/bin/bin/../../lib/gcc/pic32c/8.3.1/../../../../pic32c/lib/thumb/v7e-m+fp/hard\libc-musl.a(__io_fmt_needed.o) (__pop_int_needed)
c:/program files/microchip/xc32/v4.20/bin/bin/../../lib/gcc/pic32c/8.3.1/../../../../pic32c/lib/thumb/v7e-m+fp/hard\libc-musl.a(__pop_ptr.o)
                              c:/program files/microchip/xc32/v4.20/bin/bin/../../lib/gcc/pic32c/8.3.1/../../../../pic32c/lib/thumb/v7e-m+fp/hard\libc-musl.a(__io_fmt_needed.o) (__pop_ptr_needed)
c:/program files/microchip/xc32/v4.20/bin/bin/../../lib/gcc/pic32c/8.3.1/../../../../pic32c/lib/thumb/v7e-m+fp/hard\libc-musl.a(__printf_core.o)
                              c:/program files/microchip/xc32/v4.20/bin/bin/../../lib/gcc/pic32c/8.3.1/../../../../pic32c/lib/thumb/v7e-m+fp/hard\libc-musl.a(vfprintf.o) (__printf_core)
c:/program files/microchip/xc32/v4.20/bin/bin/../../lib/gcc/pic32c/8.3.1/../../../../pic32c/lib/thumb/v7e-m+fp/hard\libc-musl.a(atoi.o)
                              c:/program files/microchip/xc32/v4.20/bin/bin/../../lib/gcc/pic32c/8.3.1/../../../../pic32c/lib/thumb/v7e-m+fp/hard\libc-musl.a(__printf_core.o) (atoi)
c:/program files/microchip/xc32/v4.20/bin/bin/../../lib/gcc/pic32c/8.3.1/../../../../pic32c/lib/thumb/v7e-m+fp/hard\libc-musl.a(tolower.o)
                              c:/program files/microchip/xc32/v4.20/bin/bin/../../lib/gcc/pic32c/8.3.1/../../../../pic32c/lib/thumb/v7e-m+fp/hard\libc-musl.a(__printf_core.o) (tolower)
c:/program files/microchip/xc32/v4.20/bin/bin/../../lib/gcc/pic32c/8.3.1/../../../../pic32c/lib/thumb/v7e-m+fp/hard\libc-musl.a(__fmt_a.o)
                              c:/program files/microchip/xc32/v4.20/bin/bin/../../lib/gcc/pic32c/8.3.1/../../../../pic32c/lib/thumb/v7e-m+fp/hard\libc-musl.a(__io_fmt_needed.o) (__fmt_a_needed)
c:/program files/microchip/xc32/v4.20/bin/bin/../../lib/gcc/pic32c/8.3.1/../../../../pic32c/lib/thumb/v7e-m+fp/hard\libc-musl.a(__fmt_d.o)
                              c:/program files/microchip/xc32/v4.20/bin/bin/../../lib/gcc/pic32c/8.3.1/../../../../pic32c/lib/thumb/v7e-m+fp/hard\libc-musl.a(__io_fmt_needed.o) (__fmt_d_needed)
c:/program files/microchip/xc32/v4.20/bin/bin/../../lib/gcc/pic32c/8.3.1/../../../../pic32c/lib/thumb/v7e-m+fp/hard\libc-musl.a(__fmt_fp.o)
                              c:/program files/microchip/xc32/v4.20/bin/bin/../../lib/gcc/pic32c/8.3.1/../../../../pic32c/lib/thumb/v7e-m+fp/hard\libc-musl.a(__io_fmt_needed.o) (__fmt_f_needed)
c:/program files/microchip/xc32/v4.20/bin/bin/../../lib/gcc/pic32c/8.3.1/../../../../pic32c/lib/thumb/v7e-m+fp/hard\libc-musl.a(__fmt_o.o)
                              c:/program files/microchip/xc32/v4.20/bin/bin/../../lib/gcc/pic32c/8.3.1/../../../../pic32c/lib/thumb/v7e-m+fp/hard\libc-musl.a(__io_fmt_needed.o) (__fmt_o_needed)
c:/program files/microchip/xc32/v4.20/bin/bin/../../lib/gcc/pic32c/8.3.1/../../../../pic32c/lib/thumb/v7e-m+fp/hard\libc-musl.a(__fmt_s.o)
                              c:/program files/microchip/xc32/v4.20/bin/bin/../../lib/gcc/pic32c/8.3.1/../../../../pic32c/lib/thumb/v7e-m+fp/hard\libc-musl.a(__io_fmt_needed.o) (__fmt_s_needed)
c:/program files/microchip/xc32/v4.20/bin/bin/../../lib/gcc/pic32c/8.3.1/../../../../pic32c/lib/thumb/v7e-m+fp/hard\libc-musl.a(__fmt_u.o)
                              c:/program files/microchip/xc32/v4.20/bin/bin/../../lib/gcc/pic32c/8.3.1/../../../../pic32c/lib/thumb/v7e-m+fp/hard\libc-musl.a(__fmt_d.o) (__cvt_u)
c:/program files/microchip/xc32/v4.20/bin/bin/../../lib/gcc/pic32c/8.3.1/../../../../pic32c/lib/thumb/v7e-m+fp/hard\libc-musl.a(__fmt_x.o)
                              c:/program files/microchip/xc32/v4.20/bin/bin/../../lib/gcc/pic32c/8.3.1/../../../../pic32c/lib/thumb/v7e-m+fp/hard\libc-musl.a(__io_fmt_needed.o) (__fmt_x_needed)
c:/program files/microchip/xc32/v4.20/bin/bin/../../lib/gcc/pic32c/8.3.1/../../../../pic32c/lib/thumb/v7e-m+fp/hard\libc-musl.a(__init_stdio.o)
                              c:/program files/microchip/xc32/v4.20/bin/bin/../../lib/gcc/pic32c/8.3.1/../../../../pic32c/lib/thumb/v7e-m+fp/hard\libc-musl.a(__io_init_needed.o) (__init_stdio_needed)
c:/program files/microchip/xc32/v4.20/bin/bin/../../lib/gcc/pic32c/8.3.1/../../../../pic32c/lib/thumb/v7e-m+fp/hard\libc-musl.a(__io_file_needed.o)
                              c:/program files/microchip/xc32/v4.20/bin/bin/../../lib/gcc/pic32c/8.3.1/../../../../pic32c/lib/thumb/v7e-m+fp/hard\libc-musl.a(__io_init_needed.o) (__io_file_needed)
c:/program files/microchip/xc32/v4.20/bin/bin/../../lib/gcc/pic32c/8.3.1/../../../../pic32c/lib/thumb/v7e-m+fp/hard\libc-musl.a(toupper.o)
                              c:/program files/microchip/xc32/v4.20/bin/bin/../../lib/gcc/pic32c/8.3.1/../../../../pic32c/lib/thumb/v7e-m+fp/hard\libc-musl.a(__fmt_a.o) (toupper)
c:/program files/microchip/xc32/v4.20/bin/bin/../../lib/gcc/pic32c/8.3.1/../../../../pic32c/lib/thumb/v7e-m+fp/hard\libm-emfloat.a(fma.o)
                              c:/program files/microchip/xc32/v4.20/bin/bin/../../lib/gcc/pic32c/8.3.1/../../../../pic32c/lib/thumb/v7e-m+fp/hard\libc-musl.a(__fmt_fp.o) (fma)
c:/program files/microchip/xc32/v4.20/bin/bin/../../lib/gcc/pic32c/8.3.1/../../../../pic32c/lib/thumb/v7e-m+fp/hard\libm-emfloat.a(floor.o)
                              c:/program files/microchip/xc32/v4.20/bin/bin/../../lib/gcc/pic32c/8.3.1/../../../../pic32c/lib/thumb/v7e-m+fp/hard\libc-musl.a(__fmt_a.o) (floor)
c:/program files/microchip/xc32/v4.20/bin/bin/../../lib/gcc/pic32c/8.3.1/../../../../pic32c/lib/thumb/v7e-m+fp/hard\libm-emfloat.a(__aeabi_dadd.o)
                              c:/program files/microchip/xc32/v4.20/bin/bin/../../lib/gcc/pic32c/8.3.1/../../../../pic32c/lib/thumb/v7e-m+fp/hard\libc-musl.a(__fmt_a.o) (__aeabi_dadd)
c:/program files/microchip/xc32/v4.20/bin/bin/../../lib/gcc/pic32c/8.3.1/../../../../pic32c/lib/thumb/v7e-m+fp/hard\libm-emfloat.a(__aeabi_dsub.o)
                              c:/program files/microchip/xc32/v4.20/bin/bin/../../lib/gcc/pic32c/8.3.1/../../../../pic32c/lib/thumb/v7e-m+fp/hard\libc-musl.a(__fmt_a.o) (__aeabi_dsub)
c:/program files/microchip/xc32/v4.20/bin/bin/../../lib/gcc/pic32c/8.3.1/../../../../pic32c/lib/thumb/v7e-m+fp/hard\libm-emfloat.a(__aeabi_dmul.o)
                              c:/program files/microchip/xc32/v4.20/bin/bin/../../lib/gcc/pic32c/8.3.1/../../../../pic32c/lib/thumb/v7e-m+fp/hard\libc-musl.a(__fmt_a.o) (__aeabi_dmul)
c:/program files/microchip/xc32/v4.20/bin/bin/../../lib/gcc/pic32c/8.3.1/../../../../pic32c/lib/thumb/v7e-m+fp/hard\libm-emfloat.a(__aeabi_ddiv.o)
                              c:/program files/microchip/xc32/v4.20/bin/bin/../../lib/gcc/pic32c/8.3.1/../../../../pic32c/lib/thumb/v7e-m+fp/hard\libc-musl.a(__fmt_a.o) (__aeabi_ddiv)
c:/program files/microchip/xc32/v4.20/bin/bin/../../lib/gcc/pic32c/8.3.1/../../../../pic32c/lib/thumb/v7e-m+fp/hard\libm-emfloat.a(__aeabi_dcmple.o)
                              c:/program files/microchip/xc32/v4.20/bin/bin/../../lib/gcc/pic32c/8.3.1/../../../../pic32c/lib/thumb/v7e-m+fp/hard\libc-musl.a(__fmt_fp.o) (__aeabi_dcmple)
c:/program files/microchip/xc32/v4.20/bin/bin/../../lib/gcc/pic32c/8.3.1/../../../../pic32c/lib/thumb/v7e-m+fp/hard\libm-emfloat.a(__aeabi_dcmpeq.o)
                              c:/program files/microchip/xc32/v4.20/bin/bin/../../lib/gcc/pic32c/8.3.1/../../../../pic32c/lib/thumb/v7e-m+fp/hard\libc-musl.a(__fmt_a.o) (__aeabi_dcmpeq)
c:/program files/microchip/xc32/v4.20/bin/bin/../../lib/gcc/pic32c/8.3.1/../../../../pic32c/lib/thumb/v7e-m+fp/hard\libm-emfloat.a(__aeabi_dcmpgt.o)
                              c:/program files/microchip/xc32/v4.20/bin/bin/../../lib/gcc/pic32c/8.3.1/../../../../pic32c/lib/thumb/v7e-m+fp/hard\libc-musl.a(__fmt_fp.o) (__aeabi_dcmpgt)
c:/program files/microchip/xc32/v4.20/bin/bin/../../lib/gcc/pic32c/8.3.1/../../../../pic32c/lib/thumb/v7e-m+fp/hard\libm-emfloat.a(__aeabi_dcmplt.o)
                              c:/program files/microchip/xc32/v4.20/bin/bin/../../lib/gcc/pic32c/8.3.1/../../../../pic32c/lib/thumb/v7e-m+fp/hard\libc-musl.a(__fmt_a.o) (__aeabi_dcmplt)
c:/program files/microchip/xc32/v4.20/bin/bin/../../lib/gcc/pic32c/8.3.1/../../../../pic32c/lib/thumb/v7e-m+fp/hard\libm-emfloat.a(__aeabi_d2iz.o)
                              c:/program files/microchip/xc32/v4.20/bin/bin/../../lib/gcc/pic32c/8.3.1/../../../../pic32c/lib/thumb/v7e-m+fp/hard\libc-musl.a(__fmt_a.o) (__aeabi_d2iz)
c:/program files/microchip/xc32/v4.20/bin/bin/../../lib/gcc/pic32c/8.3.1/thumb/v7e-m+fp/hard\libgcc.a(_aeabi_uldivmod.o)
                              build/mcp9808/production/_ext/1027107927/plib_sercom1_usart.o (__aeabi_uldivmod)
c:/program files/microchip/xc32/v4.20/bin/bin/../../lib/gcc/pic32c/8.3.1/thumb/v7e-m+fp/hard\libgcc.a(_udivmoddi4.o)
                              c:/program files/microchip/xc32/v4.20/bin/bin/../../lib/gcc/pic32c/8.3.1/thumb/v7e-m+fp/hard\libgcc.a(_aeabi_uldivmod.o) (__udivmoddi4)
c:/program files/microchip/xc32/v4.20/bin/bin/../../lib/gcc/pic32c/8.3.1/thumb/v7e-m+fp/hard\libgcc.a(_dvmd_tls.o)
                              c:/program files/microchip/xc32/v4.20/bin/bin/../../lib/gcc/pic32c/8.3.1/thumb/v7e-m+fp/hard\libgcc.a(_aeabi_uldivmod.o) (__aeabi_ldiv0)
c:/program files/microchip/xc32/v4.20/bin/bin/../../lib/gcc/pic32c/8.3.1/../../../../pic32c/lib/thumb/v7e-m+fp/hard\libpic32c.a(sbrk.o)
                              c:/program files/microchip/xc32/v4.20/bin/bin/../../lib/gcc/pic32c/8.3.1/../../../../pic32c/lib/thumb/v7e-m+fp/hard\libc-musl.a(expand_heap.o) (_sbrk)

Microchip PIC32 Memory-Usage Report

ROM Program-Memory Usage
section                    address  length [bytes]      (dec)  Description
-------                 ----------  -------------------------  -----------
.vectors                         0          0x264         612   
.text                        0x264           0x20          32  App's exec code 
.ARM.exidx                   0x284            0x8           8   
.text.Console_UART_Flus      0x28c            0x4           4   
.text.__fmt_fp               0x290          0x4c4        1220   
.rodata.sysConsole0UART      0x754            0x4           4   
.text.__fmt_a                0x758          0x4b8        1208   
.text.SYS_CMD_Tasks          0xc10          0x458        1112   
.dinit                      0x1068          0x300         768   
.text.__printf_core         0x1368          0x2f4         756   
.text                       0x165c          0x2bc         700  App's exec code 
.rodata                     0x1918          0x26c         620  Read-only const 
.text.__aeabi_dadd          0x1b84          0x23e         574   
.text.__aeabi_ddiv          0x1dc2          0x216         534   
.text._DRV_I2C_WriteRea     0x1fd8          0x214         532   
.text.xTaskCreate           0x21ec          0x1f4         500   
.text.SERCOM1_USART_Int     0x23e0          0x1d4         468   
.text.SERCOM6_I2C_Inter     0x25b4          0x1b0         432   
.text.xTaskIncrementTic     0x2764          0x194         404   
.text.xTaskResumeAll        0x28f8          0x170         368   
.text.CommandHelp           0x2a68          0x164         356   
.text.APP_MCP9808_Tasks     0x2bcc          0x15c         348   
.text.xQueueSemaphoreTa     0x2d28          0x154         340   
.rodata                     0x2e7c          0x134         308  Read-only const 
.text.__aeabi_dmul          0x2fb0          0x130         304   
.text.xQueueGenericSend     0x30e0          0x124         292   
.text.__fmt_x               0x3204          0x11e         286   
.text.EVSYS_Initialize      0x3322            0x2           2   
.text.SERCOM6_I2C_Trans     0x3324          0x100         256   
.text.DRV_I2C_Open          0x3424           0xfc         252   
.text.free                  0x3520           0xf8         248   
.text.CLOCK_Initialize      0x3618           0xe8         232   
.text.SERCOM1_USART_Wri     0x3700           0xd8         216   
.text.xTaskRemoveFromEv     0x37d8           0xd8         216   
.text.DRV_MCP9808_Open      0x38b0           0xd0         208   
.text.floor                 0x3980           0xcc         204   
.text.xTaskPriorityInhe     0x3a4c           0xc4         196   
.text._DRV_I2C_NextTran     0x3b10           0xb4         180   
.text.DRV_TEMP_SENSOR_D     0x3bc4           0xb0         176   
.text.prvAddCurrentTask     0x3c74           0xb0         176   
.text.__pop_int             0x3d24           0xac         172   
.text.vTaskSwitchContex     0x3dd0           0xa8         168   
.text.__fmt_d               0x3e78           0xa8         168   
.text.vTaskPriorityDisi     0x3f20           0x9c         156   
.text.DisplayNodeMsg        0x3fbc           0x98         152   
.text.NVIC_Initialize       0x4054           0x94         148   
.text._DRV_I2C_Resource     0x40e8           0x90         144   
.text.xQueueGenericRese     0x4178           0x90         144   
.text.DRV_I2C_Initializ     0x4208           0x8c         140   
.text.xTaskPriorityDisi     0x4294           0x8c         140   
.text.SYS_CMDIO_ADD         0x4320           0x88         136   
.text.Reset_Handler         0x43a8           0x88         136   
.text.pvPortMalloc          0x4430           0x88         136   
.text._DRV_I2C_Resource     0x44b8           0x84         132   
.text.DRV_MCP9808_Write     0x453c           0x80         128   
.text.SendCommandPrint      0x45bc           0x80         128   
.text.SYS_CMD_PRINT         0x463c           0x80         128   
.text.__pad                 0x46bc           0x80         128   
.text.prvUnlockQueue        0x473c           0x7e         126   
.text.strspn                0x47ba           0x7e         126   
.text.SERCOM1_USART_Ini     0x4838           0x7c         124   
.text.SERCOM1_USART_Rea     0x48b4           0x7c         124   
.text.__pop_ptr             0x4930           0x7c         124   
.text.__cvt_u               0x49ac           0x78         120   
.text.prvCopyDataToQueu     0x4a24           0x76         118   
.text.strcspn               0x4a9a           0x76         118   
.text.__fmt_o               0x4b10           0x72         114   
.text.Console_UART_Task     0x4b82            0x2           2   
.text.prvIdleTask           0x4b84           0x70         112   
.text.SYS_CMD_ADDGRP        0x4bf4           0x6c         108   
.text.vTaskStartSchedul     0x4c60           0x6c         108   
.text.DRV_MCP9808_ReadW     0x4ccc           0x68         104   
.text.DRV_MCP9808_Tempe     0x4d34           0x68         104   
.text.SYS_CONSOLE_Initi     0x4d9c           0x68         104   
.text.DRV_I2C_Close         0x4e04           0x64         100   
.text.PORT_Initialize       0x4e68           0x64         100   
.text.__pic32c_data_ini     0x4ecc            0x4           4   
.text.xPortPendSVHandle     0x4ed0           0x64         100   
.text.SERCOM6_I2C_Initi     0x4f34           0x60          96   
.text.SYS_Initialize        0x4f94           0x60          96   
.text.xTaskCheckForTime     0x4ff4           0x60          96   
.text.__pic32c_data_ini     0x5054           0x60          96   
.text.vsnprintf             0x50b4           0x60          96   
.text.__strchrnul           0x5114           0x60          96   
.text.__libc_start_init     0x5174           0x5c          92   
.rodata                     0x51d0           0x5c          92  Read-only const 
.text.DRV_I2C_ErrorGet      0x522c           0x58          88   
.text.unbin                 0x5284           0x58          88   
.text.__fmt_s               0x52dc           0x58          88   
.text.__fmt_u               0x5334           0x56          86   
.text.Dummy_App_Func        0x538a            0x2           2   
.text._DRV_I2C_PLibCall     0x538c           0x54          84   
.text.Console_UART_Read     0x53e0           0x54          84   
.text.Console_UART_Writ     0x5434           0x54          84   
.text.SYS_CONSOLE_Statu     0x5488           0x50          80   
.text.APP_MCP9808_Initi     0x54d8           0x50          80   
.text.DRV_MCP9808_Initi     0x5528           0x4c          76   
.text._DRV_I2C_DriverHa     0x5574           0x4c          76   
.text.SERCOM6_I2C_Initi     0x55c0           0x4c          76   
.text.SYS_Tasks             0x560c           0x4c          76   
.text.xQueueGenericCrea     0x5658           0x4a          74   
.text.__aeabi_d2iz          0x56a2           0x4a          74   
.text._DRV_I2C_ClientCa     0x56ec           0x48          72   
.rodata.keySeqTbl           0x5734           0x48          72   
.text.Console_UART_Writ     0x577c           0x48          72   
.text.Console_UART_Writ     0x57c4           0x48          72   
.text.Console_UART_Read     0x580c           0x48          72   
.text.Console_UART_Read     0x5854           0x48          72   
.text.xPortStartSchedul     0x589c           0x48          72   
.text.strtok                0x58e4           0x48          72   
.text.atoi                  0x592c           0x46          70   
.text.Dummy_Handler         0x5972            0x2           2   
.text.SERCOM6_I2C_Trans     0x5974           0x44          68   
.text.SYS_INT_SourceDis     0x59b8           0x44          68   
.text                       0x59fc           0x40          64  App's exec code 
.text.DRV_TEMP_SENSOR_C     0x5a3c           0x40          64   
.text.DRV_MCP9808_Trans     0x5a7c           0x3c          60   
.text.Console_UART_Init     0x5ab8           0x3c          60   
.text.__aeabi_dcmple        0x5af4           0x3c          60   
.text.__out                 0x5b30           0x3a          58   
.text.NonMaskableInt_Ha     0x5b6a            0x2           2   
.text.SERCOM6_I2C_Read      0x5b6c           0x38          56   
.text.bin_index             0x5ba4           0x38          56   
.text.__putc_unbuffered     0x5bdc           0x38          56   
.text.__fmt_state           0x5c14           0x38          56   
.text.__aeabi_dcmpgt        0x5c4c           0x38          56   
.text.__aeabi_dcmplt        0x5c84           0x38          56   
.text.DRV_I2C_TransferE     0x5cbc           0x34          52   
.text.SERCOM6_I2C_Write     0x5cf0           0x34          52   
.text.SERCOM6_I2C_Write     0x5d24           0x34          52   
.text.CommandQuit           0x5d58           0x34          52   
.text.SYS_CONSOLE_Read      0x5d8c           0x34          52   
.text.SYS_CONSOLE_ReadC     0x5dc0           0x34          52   
.text.SYS_CONSOLE_Write     0x5df4           0x34          52   
.text.vTaskDelay            0x5e28           0x34          52   
.text.vListInsert           0x5e5c           0x34          52   
.text.stpncpy               0x5e90           0x34          52   
.text._DRV_I2C_RemoveCl     0x5ec4           0x32          50   
.text.__aeabi_dcmpeq        0x5ef6           0x32          50   
.text.SendCommandCharac     0x5f28           0x30          48   
.text._keyEndProcess        0x5f58           0x30          48   
.text._keyHomeProcess       0x5f88           0x30          48   
.text.alloc_rev             0x5fb8           0x30          48   
.text                       0x5fe8           0x30          48  App's exec code 
.rodata.sysConsoleUARTD     0x6018           0x2c          44   
.text.pxPortInitialiseS     0x6044           0x2c          44   
.text.xPortSysTickHandl     0x6070           0x2c          44   
.text.alloc_fwd             0x609c           0x2c          44   
.text.fma                   0x60c8           0x2c          44   
.text.fwrite                0x60f4           0x2a          42   
.text.__pop_float           0x611e           0x2a          42   
.text.SYS_CMD_Initializ     0x6148           0x28          40   
.text.prvPortStartFirst     0x6170           0x28          40   
.text.vPortSetupTimerIn     0x6198           0x28          40   
.text.prvResetNextTaskU     0x61c0           0x28          40   
.text.puts                  0x61e8           0x28          40   
.text.strncmp               0x6210           0x28          40   
.rodata._builtinCmdTbl      0x6238           0x24          36   
.text.SYS_RESET_Softwar     0x625c           0x24          36   
.rodata                     0x6280           0x24          36  Read-only const 
.text.SERCOM6_I2C_Callb     0x62a4            0xc          12   
.text.vPortSVCHandler       0x62b0           0x24          36   
.text.xQueueCreateMutex     0x62d4           0x24          36   
.text.uxListRemove          0x62f8           0x24          36   
.text.APP_MCP9808_Callb     0x631c           0x24          36   
.rodata.appCmdTbl           0x6340           0x24          36   
.text.fputs                 0x6364           0x22          34   
.text._keyRightProcess      0x6386           0x20          32   
.text.HardFault_Handler     0x63a6            0x2           2   
.text.GetCommandCharact     0x63a8           0x20          32   
.text.SYS_INT_SourceRes     0x63c8           0x20          32   
.rodata.gDrvMCP9808DrvI     0x63e8           0x20          32   
.text.prvTaskExitError      0x6408           0x20          32   
.text.vPortEnterCritica     0x6428           0x20          32   
.text.lock_bin              0x6448           0x20          32   
.text.OSAL_MUTEX_Lock       0x6468           0x1e          30   
.text._keyUpProcess         0x6486           0x1e          30   
.text.DRV_I2C_TransferS     0x64a4           0x1c          28   
.text.DRV_I2C_ReadTrans     0x64c0           0x1c          28   
.text.DRV_I2C_WriteRead     0x64dc           0x1c          28   
.text._keyLeftProcess       0x64f8           0x1c          28   
.text.SendCommandMessag     0x6514           0x1c          28   
.text.Console_UART_Stat     0x6530           0x1c          28   
.rodata.drvI2C0InitData     0x654c           0x1c          28   
.rodata.drvI2C0PLibAPI      0x6568           0x1c          28   
.text.vTaskPlaceOnEvent     0x6584           0x1c          28   
.text.pvTaskIncrementMu     0x65a0           0x1c          28   
.text.vfprintf              0x65bc           0x1c          28   
.rodata                     0x65d8           0x1c          28  Read-only const 
.text.DRV_I2C_WriteTran     0x65f4           0x1a          26   
.text.sprintf               0x660e           0x1a          26   
.text.OSAL_MUTEX_Create     0x6628           0x18          24   
.text.OSAL_MUTEX_Unlock     0x6640           0x18          24   
.text.SERCOM1_USART_Wri     0x6658           0x18          24   
.text.SERCOM1_USART_Rea     0x6670           0x18          24   
.text._keyDownProcess       0x6688           0x18          24   
.text.CommandReset          0x66a0           0x18          24   
.rodata.gDrvMCP9808Init     0x66b8           0x18          24   
.rodata.sysConsole0UART     0x66d0           0x18          24   
.text.vTaskInternalSetT     0x66e8           0x18          24   
.text.prvIsQueueEmpty       0x6700           0x16          22   
.text.vListInitialise       0x6716           0x16          22   
.text.strcmp                0x672c           0x16          22   
.text.DebugMonitor_Hand     0x6742            0x2           2   
.text.SERCOM1_USART_Rea     0x6744           0x14          20   
.text.SERCOM1_USART_Wri     0x6758           0x14          20   
.rodata.sysConsoleApi       0x676c           0x14          20   
.text.Console_UART_Reso     0x6780           0x14          20   
.rodata.drvI2C0Interrup     0x6794           0x14          20   
.text.vPortEnableVFP        0x67a8           0x14          20   
.text.vPortExitCritical     0x67bc           0x14          20   
.text.strchr                0x67d0           0x14          20   
.text.__init_stdout         0x67e4           0x14          20   
.text.DRV_MCP9808_Trans     0x67f8           0x12          18   
.text._DRV_I2C_RemoveTr     0x680a           0x12          18   
.text.NVIC_INT_Disable      0x681c           0x12          18   
.text.NVIC_INT_Restore      0x682e           0x12          18   
.text.vApplicationStack     0x6840           0x12          18   
.text.vApplicationMallo     0x6852           0x12          18   
.text.memcpy                0x6864           0x12          18   
.text.stpcpy                0x6876           0x12          18   
.text.BSP_Initialize        0x6888           0x10          16   
.text.NVMCTRL_Initializ     0x6898           0x10          16   
.text.IsCommandReady        0x68a8           0x10          16   
.text._SYS_CMD_Tasks        0x68b8           0x10          16   
.text._APP_MCP9808_Task     0x68c8           0x10          16   
.text.vTaskSuspendAll       0x68d8           0x10          16   
.text.memset                0x68e8           0x10          16   
.text.strlen                0x68f8           0x10          16   
.rodata                     0x6908           0x20          32  Read-only const 
.text.__init_stdio          0x6928           0x10          16   
.text.DRV_MCP9808_Tempe     0x6938            0xe          14   
.text.main                  0x6946            0xe          14   
.text.tolower               0x6954            0xe          14   
.text.toupper               0x6962            0xe          14   
.text.SERCOM6_I2C_Error     0x6970            0xc          12   
.text.SYS_CMD_MESSAGE       0x697c            0xc          12   
.rodata.sysConsole0Init     0x6988            0xc          12   
.text.vTaskMissedYield      0x6994            0xc          12   
.text.CMD_Read_Temperat     0x69a0            0xc          12   
.text.CMD_Read_ID           0x69ac            0xc          12   
.text.CMD_Write_Reg         0x69b8            0xc          12   
.text.vsprintf              0x69c4            0xc          12   
.text.strcpy                0x69d0            0xc          12   
.text.strncpy               0x69dc            0xc          12   
.text.OSAL_Malloc           0x69e8            0x8           8   
.text.SERCOM1_USART_Wri     0x69f0            0x8           8   
.text.SYS_INT_Disable       0x69f8            0x8           8   
.text.SYS_INT_Restore       0x6a00            0x8           8   
.rodata                     0x6a08            0x8           8  Read-only const 
.text.putc                  0x6a10            0x8           8   
.text.__dummy               0x6a18            0x8           8   
.text.__aeabi_dsub          0x6a20            0x8           8   
.rodata                     0x6a28            0x7           7  Read-only const 
.text.write                 0x6a30            0x6           6   
.text.vListInitialiseIt     0x6a36            0x6           6   
.text.__fwrite_min          0x6a3c            0x6           6   
.text.MemoryManagement_     0x6a42            0x2           2   
.text                       0x6a44            0x4           4  App's exec code 
.text.BusFault_Handler      0x6a48            0x2           2   
.text.UsageFault_Handle     0x6a4a            0x2           2   
.text.vPortFree             0x6a4c            0x2           2   
.text.__dummy               0x6a4e            0x4           4   
      Total ROM used  :      0x6a51       27217  2.6% of 0x100000
        --------------------------------------------------------------------------
         Total Program Memory used  :      0x6a51       27217  2.6% of 0x100000
        --------------------------------------------------------------------------


RAM Data-Memory Usage
section                    address  length [bytes]      (dec)  Description
-------                 ----------  -------------------------  -----------
.bss.ucHeap             0x20000000         0xa000       40960   
.bss.printBuff          0x2000a000          0x800        2048   
.bss                    0x2000a800          0x20c         524  Uninitialized data 
.bss.SERCOM1_USART_Read 0x2000aa0c          0x100         256   
.bss.SERCOM1_USART_Writ 0x2000ab0c          0x100         256   
.bss._usrCmdTbl         0x2000ac0c           0x80         128   
.bss.gDrvMCP98080Client 0x2000ac8c           0x68         104   
.bss.pxReadyTasksLists  0x2000acf4           0x64         100   
.bss.drvI2C0TransferObj 0x2000ad58           0x58          88   
.bss                    0x2000adb0           0x50          80  Uninitialized data 
.bss.gDrvI2CObj         0x2000ae00           0x44          68   
.bss.sercom1USARTObj    0x2000ae44           0x40          64   
.bss.sercom6I2CObj      0x2000ae84           0x2c          44   
.bss                    0x2000aeb0           0x1c          28  Uninitialized data 
.bss.gDrvTempSensorObj  0x2000aecc           0x18          24   
.bss.gConsoleUartData   0x2000aee4           0x18          24   
.bss.drvI2C0ClientObjPo 0x2000aefc           0x18          24   
.bss.xDelayedTaskList1  0x2000af14           0x14          20   
.bss.xDelayedTaskList2  0x2000af28           0x14          20   
.bss.xPendingReadyList  0x2000af3c           0x14          20   
.bss.xSuspendedTaskList 0x2000af50           0x14          20   
.bss.xTasksWaitingTermi 0x2000af64           0x14          20   
.bss.appI0C1tempSensorD 0x2000af78           0x14          20   
.bss.consoleDeviceInsta 0x2000af8c            0xc          12   
.bss.cmdIODevList       0x2000af98            0x8           8   
.bss.sysObj             0x2000afa0            0x8           8   
.bss                    0x2000afa8            0x8           8  Uninitialized data 
.bss._cmdInitData       0x2000afb0            0x4           4   
.bss.printBuffPtr       0x2000afb4            0x4           4   
.bss.consolePrintBuffer 0x2000afb8            0x4           4   
.bss.sysCmdInit         0x2000afbc            0x4           4   
.bss.xAPP_MCP9808_Tasks 0x2000afc0            0x4           4   
.bss.pucAlignedHeap.618 0x2000afc4            0x4           4   
.bss.xNextFreeByte      0x2000afc8            0x4           4   
.bss.pxCurrentTCB       0x2000afcc            0x4           4   
.bss.pxDelayedTaskList  0x2000afd0            0x4           4   
.bss.pxOverflowDelayedT 0x2000afd4            0x4           4   
.bss.uxCurrentNumberOfT 0x2000afd8            0x4           4   
.bss.uxDeletedTasksWait 0x2000afdc            0x4           4   
.bss.uxSchedulerSuspend 0x2000afe0            0x4           4   
.bss.uxTaskNumber       0x2000afe4            0x4           4   
.bss.uxTopReadyPriority 0x2000afe8            0x4           4   
.bss.xIdleTaskHandle    0x2000afec            0x4           4   
.bss.xNextTaskUnblockTi 0x2000aff0            0x4           4   
.bss.xNumOfOverflows    0x2000aff4            0x4           4   
.bss.xPendedTicks       0x2000aff8            0x4           4   
.bss.xSchedulerRunning  0x2000affc            0x4           4   
.bss.xTickCount         0x2000b000            0x4           4   
.bss.xYieldPending      0x2000b004            0x4           4   
.bss                    0x2000b008           0x10          16  Uninitialized data 
.bss.app_mcp9808Data    0x2000b018            0x1           1   
.bss.error_reported.956 0x2000b019            0x1           1   
.bss.isConsoleMutexCrea 0x2000b01a            0x1           1   
.data                   0x2000b01c           0x20          32  Initialized data 
.data.uxCriticalNesting 0x2000b03c            0x4           4   
.data.uxTopUsedPriority 0x2000b040            0x4           4   
         Total RAM used  :      0xb043       45123  17.2% of 0x40000
        --------------------------------------------------------------------------
            Total Data Memory used  :      0xb043       45123  17.2% of 0x40000
        --------------------------------------------------------------------------


Dynamic Data-Memory Reservation
section                    address  length [bytes]      (dec)  Description
-------                 ----------  -------------------------  -----------
heap                    0x2000b048          0x400        1024  Reserved for heap 
stack                   0x2000b460        0x34b90      215952  Reserved for stack 

        --------------------------------------------------------------------------

Discarded input sections

 .text          0x00000000        0x0 c:/program files/microchip/xc32/v4.20/bin/bin/../../lib/gcc/pic32c/8.3.1/thumb/v7e-m+fp/hard/crti.o
 .data          0x00000000        0x0 c:/program files/microchip/xc32/v4.20/bin/bin/../../lib/gcc/pic32c/8.3.1/thumb/v7e-m+fp/hard/crti.o
 .bss           0x00000000        0x0 c:/program files/microchip/xc32/v4.20/bin/bin/../../lib/gcc/pic32c/8.3.1/thumb/v7e-m+fp/hard/crti.o
 .xc_stack_usage.hdr
                0x00000000        0xe c:/program files/microchip/xc32/v4.20/bin/bin/../../lib/gcc/pic32c/8.3.1/thumb/v7e-m+fp/hard/crti.o
 .xc_stack_usage
                0x00000000       0x26 c:/program files/microchip/xc32/v4.20/bin/bin/../../lib/gcc/pic32c/8.3.1/thumb/v7e-m+fp/hard/crti.o
 .data          0x00000000        0x4 c:/program files/microchip/xc32/v4.20/bin/bin/../../lib/gcc/pic32c/8.3.1/thumb/v7e-m+fp/hard/crtbegin.o
 .xc_stack_usage
                0x00000000       0x3c c:/program files/microchip/xc32/v4.20/bin/bin/../../lib/gcc/pic32c/8.3.1/thumb/v7e-m+fp/hard/crtbegin.o
 .xc_stack_usage.hdr
                0x00000000        0xe c:/program files/microchip/xc32/v4.20/bin/bin/../../lib/gcc/pic32c/8.3.1/thumb/v7e-m+fp/hard/crtbegin.o
 .text          0x00000000        0x0 build/mcp9808/production/_ext/1998409442/bsp.o
 .data          0x00000000        0x0 build/mcp9808/production/_ext/1998409442/bsp.o
 .bss           0x00000000        0x0 build/mcp9808/production/_ext/1998409442/bsp.o
 .text          0x00000000        0x0 build/mcp9808/production/_ext/1243884746/drv_mcp9808.o
 .data          0x00000000        0x0 build/mcp9808/production/_ext/1243884746/drv_mcp9808.o
 .bss           0x00000000        0x0 build/mcp9808/production/_ext/1243884746/drv_mcp9808.o
 .text.DRV_MCP9808_Close
                0x00000000       0x28 build/mcp9808/production/_ext/1243884746/drv_mcp9808.o
 .text.DRV_MCP9808_EEPROMWrite
                0x00000000       0x80 build/mcp9808/production/_ext/1243884746/drv_mcp9808.o
 .text.DRV_MCP9808_EEPROMRead
                0x00000000       0x70 build/mcp9808/production/_ext/1243884746/drv_mcp9808.o
 .text          0x00000000        0x0 build/mcp9808/production/_ext/136144951/drv_i2c.o
 .data          0x00000000        0x0 build/mcp9808/production/_ext/136144951/drv_i2c.o
 .bss           0x00000000        0x0 build/mcp9808/production/_ext/136144951/drv_i2c.o
 .text.DRV_I2C_Status
                0x00000000       0x14 build/mcp9808/production/_ext/136144951/drv_i2c.o
 .text.DRV_I2C_QueuePurge
                0x00000000       0x64 build/mcp9808/production/_ext/136144951/drv_i2c.o
 .text.DRV_I2C_TransferStatusGet
                0x00000000       0x54 build/mcp9808/production/_ext/136144951/drv_i2c.o
 .text          0x00000000        0x0 build/mcp9808/production/_ext/1820763632/osal_freertos.o
 .data          0x00000000        0x0 build/mcp9808/production/_ext/1820763632/osal_freertos.o
 .bss           0x00000000        0x0 build/mcp9808/production/_ext/1820763632/osal_freertos.o
 .text.OSAL_CRIT_Enter
                0x00000000       0x18 build/mcp9808/production/_ext/1820763632/osal_freertos.o
 .text.OSAL_CRIT_Leave
                0x00000000       0x16 build/mcp9808/production/_ext/1820763632/osal_freertos.o
 .text.OSAL_SEM_Create
                0x00000000       0x58 build/mcp9808/production/_ext/1820763632/osal_freertos.o
 .text.OSAL_SEM_Delete
                0x00000000       0x12 build/mcp9808/production/_ext/1820763632/osal_freertos.o
 .text.OSAL_SEM_Pend
                0x00000000       0x1e build/mcp9808/production/_ext/1820763632/osal_freertos.o
 .text.OSAL_SEM_Post
                0x00000000       0x18 build/mcp9808/production/_ext/1820763632/osal_freertos.o
 .text.OSAL_SEM_PostISR
                0x00000000       0x3c build/mcp9808/production/_ext/1820763632/osal_freertos.o
 .text.OSAL_SEM_GetCount
                0x00000000       0x12 build/mcp9808/production/_ext/1820763632/osal_freertos.o
 .text.OSAL_MUTEX_Delete
                0x00000000       0x1a build/mcp9808/production/_ext/1820763632/osal_freertos.o
 .text.OSAL_Free
                0x00000000        0x8 build/mcp9808/production/_ext/1820763632/osal_freertos.o
 .text.OSAL_Initialize
                0x00000000        0x4 build/mcp9808/production/_ext/1820763632/osal_freertos.o
 .text          0x00000000        0x0 build/mcp9808/production/_ext/1885943492/plib_clock.o
 .data          0x00000000        0x0 build/mcp9808/production/_ext/1885943492/plib_clock.o
 .bss           0x00000000        0x0 build/mcp9808/production/_ext/1885943492/plib_clock.o
 .text          0x00000000        0x0 build/mcp9808/production/_ext/1324637020/plib_cmcc.o
 .data          0x00000000        0x0 build/mcp9808/production/_ext/1324637020/plib_cmcc.o
 .bss           0x00000000        0x0 build/mcp9808/production/_ext/1324637020/plib_cmcc.o
 .text.CMCC_Disable
                0x00000000       0x18 build/mcp9808/production/_ext/1324637020/plib_cmcc.o
 .text.CMCC_EnableICache
                0x00000000       0x28 build/mcp9808/production/_ext/1324637020/plib_cmcc.o
 .text.CMCC_DisableICache
                0x00000000       0x28 build/mcp9808/production/_ext/1324637020/plib_cmcc.o
 .text.CMCC_EnableDCache
                0x00000000       0x28 build/mcp9808/production/_ext/1324637020/plib_cmcc.o
 .text.CMCC_DisableDCache
                0x00000000       0x28 build/mcp9808/production/_ext/1324637020/plib_cmcc.o
 .text.CMCC_InvalidateAll
                0x00000000       0x20 build/mcp9808/production/_ext/1324637020/plib_cmcc.o
 .debug_info    0x00000000      0x526 build/mcp9808/production/_ext/1324637020/plib_cmcc.o
 .debug_abbrev  0x00000000       0x99 build/mcp9808/production/_ext/1324637020/plib_cmcc.o
 .debug_aranges
                0x00000000       0x48 build/mcp9808/production/_ext/1324637020/plib_cmcc.o
 .debug_ranges  0x00000000       0x38 build/mcp9808/production/_ext/1324637020/plib_cmcc.o
 .debug_line    0x00000000      0x207 build/mcp9808/production/_ext/1324637020/plib_cmcc.o
 .debug_str     0x00000000        0x0 build/mcp9808/production/_ext/1324637020/plib_cmcc.o
 .comment       0x00000000       0x2c build/mcp9808/production/_ext/1324637020/plib_cmcc.o
 .debug_frame   0x00000000       0x70 build/mcp9808/production/_ext/1324637020/plib_cmcc.o
 .ARM.attributes
                0x00000000       0x34 build/mcp9808/production/_ext/1324637020/plib_cmcc.o
 .text          0x00000000        0x0 build/mcp9808/production/_ext/1883794006/plib_evsys.o
 .data          0x00000000        0x0 build/mcp9808/production/_ext/1883794006/plib_evsys.o
 .bss           0x00000000        0x0 build/mcp9808/production/_ext/1883794006/plib_evsys.o
 .text          0x00000000        0x0 build/mcp9808/production/_ext/1324973556/plib_nvic.o
 .data          0x00000000        0x0 build/mcp9808/production/_ext/1324973556/plib_nvic.o
 .bss           0x00000000        0x0 build/mcp9808/production/_ext/1324973556/plib_nvic.o
 .text.NVIC_INT_Enable
                0x00000000        0x8 build/mcp9808/production/_ext/1324973556/plib_nvic.o
 .text          0x00000000        0x0 build/mcp9808/production/_ext/1541565758/plib_nvmctrl.o
 .data          0x00000000        0x0 build/mcp9808/production/_ext/1541565758/plib_nvmctrl.o
 .bss           0x00000000        0x0 build/mcp9808/production/_ext/1541565758/plib_nvmctrl.o
 .text.NVMCTRL_Read
                0x00000000       0x10 build/mcp9808/production/_ext/1541565758/plib_nvmctrl.o
 .text.NVMCTRL_SetWriteMode
                0x00000000       0x14 build/mcp9808/production/_ext/1541565758/plib_nvmctrl.o
 .text.NVMCTRL_QuadWordWrite
                0x00000000       0x4c build/mcp9808/production/_ext/1541565758/plib_nvmctrl.o
 .text.NVMCTRL_DoubleWordWrite
                0x00000000       0x40 build/mcp9808/production/_ext/1541565758/plib_nvmctrl.o
 .text.NVMCTRL_PageBufferWrite
                0x00000000       0x2c build/mcp9808/production/_ext/1541565758/plib_nvmctrl.o
 .text.NVMCTRL_PageBufferCommit
                0x00000000       0x28 build/mcp9808/production/_ext/1541565758/plib_nvmctrl.o
 .text.NVMCTRL_PageWrite
                0x00000000       0x40 build/mcp9808/production/_ext/1541565758/plib_nvmctrl.o
 .text.NVMCTRL_BlockErase
                0x00000000       0x1c build/mcp9808/production/_ext/1541565758/plib_nvmctrl.o
 .text.NVMCTRL_USER_ROW_RowErase
                0x00000000       0x30 build/mcp9808/production/_ext/1541565758/plib_nvmctrl.o
 .text.NVMCTRL_ErrorGet
                0x00000000       0x20 build/mcp9808/production/_ext/1541565758/plib_nvmctrl.o
 .text.NVMCTRL_StatusGet
                0x00000000        0xc build/mcp9808/production/_ext/1541565758/plib_nvmctrl.o
 .text.NVMCTRL_IsBusy
                0x00000000       0x14 build/mcp9808/production/_ext/1541565758/plib_nvmctrl.o
 .text.NVMCTRL_USER_ROW_PageWrite
                0x00000000       0x6c build/mcp9808/production/_ext/1541565758/plib_nvmctrl.o
 .text.NVMCTRL_RegionLock
                0x00000000       0x10 build/mcp9808/production/_ext/1541565758/plib_nvmctrl.o
 .text.NVMCTRL_RegionUnlock
                0x00000000       0x10 build/mcp9808/production/_ext/1541565758/plib_nvmctrl.o
 .text.NVMCTRL_RegionLockStatusGet
                0x00000000        0xc build/mcp9808/production/_ext/1541565758/plib_nvmctrl.o
 .text.NVMCTRL_SecurityBitSet
                0x00000000       0x10 build/mcp9808/production/_ext/1541565758/plib_nvmctrl.o
 .text.NVMCTRL_SmartEEPROM_IsBusy
                0x00000000       0x10 build/mcp9808/production/_ext/1541565758/plib_nvmctrl.o
 .text.NVMCTRL_SmartEEPROMStatusGet
                0x00000000        0xc build/mcp9808/production/_ext/1541565758/plib_nvmctrl.o
 .text.NVMCTRL_SmartEEPROM_IsActiveSectorFull
                0x00000000       0x10 build/mcp9808/production/_ext/1541565758/plib_nvmctrl.o
 .text.NVMCTRL_BankSwap
                0x00000000       0x10 build/mcp9808/production/_ext/1541565758/plib_nvmctrl.o
 .text.NVMCTRL_SmartEEPROMSectorReallocate
                0x00000000       0x10 build/mcp9808/production/_ext/1541565758/plib_nvmctrl.o
 .text.NVMCTRL_SmartEEPROMFlushPageBuffer
                0x00000000       0x18 build/mcp9808/production/_ext/1541565758/plib_nvmctrl.o
 .bss.nvm_error
                0x00000000        0x2 build/mcp9808/production/_ext/1541565758/plib_nvmctrl.o
 .text          0x00000000        0x0 build/mcp9808/production/_ext/1325026707/plib_port.o
 .data          0x00000000        0x0 build/mcp9808/production/_ext/1325026707/plib_port.o
 .bss           0x00000000        0x0 build/mcp9808/production/_ext/1325026707/plib_port.o
 .text.PORT_GroupRead
                0x00000000        0x4 build/mcp9808/production/_ext/1325026707/plib_port.o
 .text.PORT_GroupWrite
                0x00000000        0xc build/mcp9808/production/_ext/1325026707/plib_port.o
 .text.PORT_GroupLatchRead
                0x00000000        0x4 build/mcp9808/production/_ext/1325026707/plib_port.o
 .text.PORT_GroupSet
                0x00000000        0x4 build/mcp9808/production/_ext/1325026707/plib_port.o
 .text.PORT_GroupClear
                0x00000000        0x4 build/mcp9808/production/_ext/1325026707/plib_port.o
 .text.PORT_GroupToggle
                0x00000000        0x4 build/mcp9808/production/_ext/1325026707/plib_port.o
 .text.PORT_GroupInputEnable
                0x00000000        0x4 build/mcp9808/production/_ext/1325026707/plib_port.o
 .text.PORT_GroupOutputEnable
                0x00000000        0x4 build/mcp9808/production/_ext/1325026707/plib_port.o
 .text.PORT_PinPeripheralFunctionConfig
                0x00000000       0x4a build/mcp9808/production/_ext/1325026707/plib_port.o
 .text.PORT_PinGPIOConfig
                0x00000000       0x20 build/mcp9808/production/_ext/1325026707/plib_port.o
 .text          0x00000000        0x0 build/mcp9808/production/_ext/1646999677/plib_sercom6_i2c_master.o
 .data          0x00000000        0x0 build/mcp9808/production/_ext/1646999677/plib_sercom6_i2c_master.o
 .bss           0x00000000        0x0 build/mcp9808/production/_ext/1646999677/plib_sercom6_i2c_master.o
 .text.SERCOM6_I2C_IsBusy
                0x00000000       0x28 build/mcp9808/production/_ext/1646999677/plib_sercom6_i2c_master.o
 .text          0x00000000        0x0 build/mcp9808/production/_ext/1027107927/plib_sercom1_usart.o
 .data          0x00000000        0x0 build/mcp9808/production/_ext/1027107927/plib_sercom1_usart.o
 .bss           0x00000000        0x0 build/mcp9808/production/_ext/1027107927/plib_sercom1_usart.o
 .text.SERCOM1_USART_FrequencyGet
                0x00000000        0x8 build/mcp9808/production/_ext/1027107927/plib_sercom1_usart.o
 .text.SERCOM1_USART_SerialSetup
                0x00000000      0x140 build/mcp9808/production/_ext/1027107927/plib_sercom1_usart.o
 .text.SERCOM1_USART_ErrorGet
                0x00000000       0x10 build/mcp9808/production/_ext/1027107927/plib_sercom1_usart.o
 .text.SERCOM1_USART_ReadBufferSizeGet
                0x00000000        0xc build/mcp9808/production/_ext/1027107927/plib_sercom1_usart.o
 .text.SERCOM1_USART_ReadNotificationEnable
                0x00000000       0x18 build/mcp9808/production/_ext/1027107927/plib_sercom1_usart.o
 .text.SERCOM1_USART_ReadThresholdSet
                0x00000000        0xc build/mcp9808/production/_ext/1027107927/plib_sercom1_usart.o
 .text.SERCOM1_USART_ReadCallbackRegister
                0x00000000        0xc build/mcp9808/production/_ext/1027107927/plib_sercom1_usart.o
 .text.SERCOM1_USART_TransmitComplete
                0x00000000       0x10 build/mcp9808/production/_ext/1027107927/plib_sercom1_usart.o
 .text.SERCOM1_USART_WriteBufferSizeGet
                0x00000000        0xc build/mcp9808/production/_ext/1027107927/plib_sercom1_usart.o
 .text.SERCOM1_USART_WriteNotificationEnable
                0x00000000       0x10 build/mcp9808/production/_ext/1027107927/plib_sercom1_usart.o
 .text.SERCOM1_USART_WriteThresholdSet
                0x00000000        0xc build/mcp9808/production/_ext/1027107927/plib_sercom1_usart.o
 .text.SERCOM1_USART_WriteCallbackRegister
                0x00000000        0xc build/mcp9808/production/_ext/1027107927/plib_sercom1_usart.o
 .text          0x00000000        0x0 build/mcp9808/production/_ext/605370968/xc32_monitor.o
 .data          0x00000000        0x0 build/mcp9808/production/_ext/605370968/xc32_monitor.o
 .bss           0x00000000        0x0 build/mcp9808/production/_ext/605370968/xc32_monitor.o
 .text.read     0x00000000        0x6 build/mcp9808/production/_ext/605370968/xc32_monitor.o
 .text          0x00000000        0x0 build/mcp9808/production/_ext/1595351133/sys_cache.o
 .data          0x00000000        0x0 build/mcp9808/production/_ext/1595351133/sys_cache.o
 .bss           0x00000000        0x0 build/mcp9808/production/_ext/1595351133/sys_cache.o
 .text.SYS_CACHE_EnableCaches
                0x00000000        0x2 build/mcp9808/production/_ext/1595351133/sys_cache.o
 .text.SYS_CACHE_DisableCaches
                0x00000000        0x2 build/mcp9808/production/_ext/1595351133/sys_cache.o
 .text.SYS_CACHE_EnableICache
                0x00000000        0x2 build/mcp9808/production/_ext/1595351133/sys_cache.o
 .text.SYS_CACHE_DisableICache
                0x00000000        0x2 build/mcp9808/production/_ext/1595351133/sys_cache.o
 .text.SYS_CACHE_InvalidateICache
                0x00000000        0x2 build/mcp9808/production/_ext/1595351133/sys_cache.o
 .text.SYS_CACHE_EnableDCache
                0x00000000        0x2 build/mcp9808/production/_ext/1595351133/sys_cache.o
 .text.SYS_CACHE_DisableDCache
                0x00000000        0x2 build/mcp9808/production/_ext/1595351133/sys_cache.o
 .text.SYS_CACHE_InvalidateDCache
                0x00000000        0x2 build/mcp9808/production/_ext/1595351133/sys_cache.o
 .text.SYS_CACHE_CleanDCache
                0x00000000        0x2 build/mcp9808/production/_ext/1595351133/sys_cache.o
 .text.SYS_CACHE_CleanInvalidateDCache
                0x00000000        0x2 build/mcp9808/production/_ext/1595351133/sys_cache.o
 .text.SYS_CACHE_InvalidateDCache_by_Addr
                0x00000000        0x2 build/mcp9808/production/_ext/1595351133/sys_cache.o
 .text.SYS_CACHE_CleanDCache_by_Addr
                0x00000000        0x2 build/mcp9808/production/_ext/1595351133/sys_cache.o
 .text.SYS_CACHE_CleanInvalidateDCache_by_Addr
                0x00000000        0x2 build/mcp9808/production/_ext/1595351133/sys_cache.o
 .debug_info    0x00000000      0x5c8 build/mcp9808/production/_ext/1595351133/sys_cache.o
 .debug_abbrev  0x00000000       0x8f build/mcp9808/production/_ext/1595351133/sys_cache.o
 .debug_aranges
                0x00000000       0x80 build/mcp9808/production/_ext/1595351133/sys_cache.o
 .debug_ranges  0x00000000       0x70 build/mcp9808/production/_ext/1595351133/sys_cache.o
 .debug_line    0x00000000      0x191 build/mcp9808/production/_ext/1595351133/sys_cache.o
 .debug_str     0x00000000        0x0 build/mcp9808/production/_ext/1595351133/sys_cache.o
 .comment       0x00000000       0x2c build/mcp9808/production/_ext/1595351133/sys_cache.o
 .debug_frame   0x00000000       0xe0 build/mcp9808/production/_ext/1595351133/sys_cache.o
 .ARM.attributes
                0x00000000       0x34 build/mcp9808/production/_ext/1595351133/sys_cache.o
 .text          0x00000000        0x0 build/mcp9808/production/_ext/1427623807/sys_command.o
 .data          0x00000000        0x0 build/mcp9808/production/_ext/1427623807/sys_command.o
 .bss           0x00000000        0x0 build/mcp9808/production/_ext/1427623807/sys_command.o
 .text.SYS_CMD_READY_TO_READ
                0x00000000        0x4 build/mcp9808/production/_ext/1427623807/sys_command.o
 .text.SYS_CMDIO_GET_HANDLE
                0x00000000       0x20 build/mcp9808/production/_ext/1427623807/sys_command.o
 .text.SYS_CMD_DELETE
                0x00000000       0x64 build/mcp9808/production/_ext/1427623807/sys_command.o
 .text          0x00000000        0x0 build/mcp9808/production/_ext/1884335987/sys_console.o
 .data          0x00000000        0x0 build/mcp9808/production/_ext/1884335987/sys_console.o
 .bss           0x00000000        0x0 build/mcp9808/production/_ext/1884335987/sys_console.o
 .text.SYS_CONSOLE_HandleGet
                0x00000000        0xa build/mcp9808/production/_ext/1884335987/sys_console.o
 .text.SYS_CONSOLE_DeviceGet
                0x00000000       0x18 build/mcp9808/production/_ext/1884335987/sys_console.o
 .text.SYS_CONSOLE_Tasks
                0x00000000       0x28 build/mcp9808/production/_ext/1884335987/sys_console.o
 .text.SYS_CONSOLE_ReadFreeBufferCountGet
                0x00000000       0x34 build/mcp9808/production/_ext/1884335987/sys_console.o
 .text.SYS_CONSOLE_WriteFreeBufferCountGet
                0x00000000       0x34 build/mcp9808/production/_ext/1884335987/sys_console.o
 .text.SYS_CONSOLE_WriteCountGet
                0x00000000       0x34 build/mcp9808/production/_ext/1884335987/sys_console.o
 .text.SYS_CONSOLE_Print
                0x00000000       0x70 build/mcp9808/production/_ext/1884335987/sys_console.o
 .text.SYS_CONSOLE_Message
                0x00000000       0x30 build/mcp9808/production/_ext/1884335987/sys_console.o
 .text.SYS_CONSOLE_Flush
                0x00000000       0x2c build/mcp9808/production/_ext/1884335987/sys_console.o
 .bss.consolePrintBuffer
                0x00000000      0x320 build/mcp9808/production/_ext/1884335987/sys_console.o
 .text          0x00000000        0x0 build/mcp9808/production/_ext/1884335987/sys_console_uart.o
 .data          0x00000000        0x0 build/mcp9808/production/_ext/1884335987/sys_console_uart.o
 .bss           0x00000000        0x0 build/mcp9808/production/_ext/1884335987/sys_console_uart.o
 .text          0x00000000        0x0 build/mcp9808/production/_ext/1587138469/sys_int.o
 .data          0x00000000        0x0 build/mcp9808/production/_ext/1587138469/sys_int.o
 .bss           0x00000000        0x0 build/mcp9808/production/_ext/1587138469/sys_int.o
 .text.SYS_INT_Enable
                0x00000000        0x8 build/mcp9808/production/_ext/1587138469/sys_int.o
 .text          0x00000000        0x0 build/mcp9808/production/_ext/1581363856/sys_reset.o
 .data          0x00000000        0x0 build/mcp9808/production/_ext/1581363856/sys_reset.o
 .bss           0x00000000        0x0 build/mcp9808/production/_ext/1581363856/sys_reset.o
 .text          0x00000000        0x0 build/mcp9808/production/_ext/519814254/startup_xc32.o
 .data          0x00000000        0x0 build/mcp9808/production/_ext/519814254/startup_xc32.o
 .bss           0x00000000        0x0 build/mcp9808/production/_ext/519814254/startup_xc32.o
 .text          0x00000000        0x0 build/mcp9808/production/_ext/519814254/initialization.o
 .data          0x00000000        0x0 build/mcp9808/production/_ext/519814254/initialization.o
 .bss           0x00000000        0x0 build/mcp9808/production/_ext/519814254/initialization.o
 .text          0x00000000        0x0 build/mcp9808/production/_ext/519814254/interrupts.o
 .data          0x00000000        0x0 build/mcp9808/production/_ext/519814254/interrupts.o
 .bss           0x00000000        0x0 build/mcp9808/production/_ext/519814254/interrupts.o
 .text          0x00000000        0x0 build/mcp9808/production/_ext/519814254/freertos_hooks.o
 .data          0x00000000        0x0 build/mcp9808/production/_ext/519814254/freertos_hooks.o
 .bss           0x00000000        0x0 build/mcp9808/production/_ext/519814254/freertos_hooks.o
 .text.vApplicationIdleHook
                0x00000000        0x2 build/mcp9808/production/_ext/519814254/freertos_hooks.o
 .text.vApplicationTickHook
                0x00000000        0x2 build/mcp9808/production/_ext/519814254/freertos_hooks.o
 .text.vAssertCalled
                0x00000000       0x1c build/mcp9808/production/_ext/519814254/freertos_hooks.o
 .text          0x00000000        0x0 build/mcp9808/production/_ext/519814254/libc_syscalls.o
 .data          0x00000000        0x0 build/mcp9808/production/_ext/519814254/libc_syscalls.o
 .bss           0x00000000        0x0 build/mcp9808/production/_ext/519814254/libc_syscalls.o
 .text._exit    0x00000000        0x2 build/mcp9808/production/_ext/519814254/libc_syscalls.o
 .debug_info    0x00000000      0x304 build/mcp9808/production/_ext/519814254/libc_syscalls.o
 .debug_abbrev  0x00000000       0x52 build/mcp9808/production/_ext/519814254/libc_syscalls.o
 .debug_loc     0x00000000       0x15 build/mcp9808/production/_ext/519814254/libc_syscalls.o
 .debug_aranges
                0x00000000       0x20 build/mcp9808/production/_ext/519814254/libc_syscalls.o
 .debug_ranges  0x00000000       0x10 build/mcp9808/production/_ext/519814254/libc_syscalls.o
 .debug_line    0x00000000       0x5b build/mcp9808/production/_ext/519814254/libc_syscalls.o
 .debug_str     0x00000000        0x0 build/mcp9808/production/_ext/519814254/libc_syscalls.o
 .comment       0x00000000       0x2c build/mcp9808/production/_ext/519814254/libc_syscalls.o
 .debug_frame   0x00000000       0x20 build/mcp9808/production/_ext/519814254/libc_syscalls.o
 .ARM.attributes
                0x00000000       0x34 build/mcp9808/production/_ext/519814254/libc_syscalls.o
 .text          0x00000000        0x0 build/mcp9808/production/_ext/519814254/tasks.o
 .data          0x00000000        0x0 build/mcp9808/production/_ext/519814254/tasks.o
 .bss           0x00000000        0x0 build/mcp9808/production/_ext/519814254/tasks.o
 .text          0x00000000        0x0 build/mcp9808/production/_ext/519814254/exceptions.o
 .data          0x00000000        0x0 build/mcp9808/production/_ext/519814254/exceptions.o
 .bss           0x00000000        0x0 build/mcp9808/production/_ext/519814254/exceptions.o
 .text          0x00000000        0x0 build/mcp9808/production/_ext/246609638/port.o
 .data          0x00000000        0x0 build/mcp9808/production/_ext/246609638/port.o
 .bss           0x00000000        0x0 build/mcp9808/production/_ext/246609638/port.o
 .text.vPortEndScheduler
                0x00000000        0x2 build/mcp9808/production/_ext/246609638/port.o
 .text          0x00000000        0x0 build/mcp9808/production/_ext/1665200909/heap_1.o
 .data          0x00000000        0x0 build/mcp9808/production/_ext/1665200909/heap_1.o
 .bss           0x00000000        0x0 build/mcp9808/production/_ext/1665200909/heap_1.o
 .text.vPortInitialiseBlocks
                0x00000000        0xc build/mcp9808/production/_ext/1665200909/heap_1.o
 .text.xPortGetFreeHeapSize
                0x00000000       0x10 build/mcp9808/production/_ext/1665200909/heap_1.o
 .text          0x00000000        0x0 build/mcp9808/production/_ext/404212886/queue.o
 .data          0x00000000        0x0 build/mcp9808/production/_ext/404212886/queue.o
 .bss           0x00000000        0x0 build/mcp9808/production/_ext/404212886/queue.o
 .text.prvCopyDataFromQueue
                0x00000000       0x24 build/mcp9808/production/_ext/404212886/queue.o
 .text.xQueueCreateCountingSemaphore
                0x00000000       0x26 build/mcp9808/production/_ext/404212886/queue.o
 .text.xQueueGenericSendFromISR
                0x00000000       0x7c build/mcp9808/production/_ext/404212886/queue.o
 .text.xQueueGiveFromISR
                0x00000000       0x72 build/mcp9808/production/_ext/404212886/queue.o
 .text.xQueueReceive
                0x00000000      0x110 build/mcp9808/production/_ext/404212886/queue.o
 .text.xQueuePeek
                0x00000000      0x10c build/mcp9808/production/_ext/404212886/queue.o
 .text.xQueueReceiveFromISR
                0x00000000       0x7e build/mcp9808/production/_ext/404212886/queue.o
 .text.xQueuePeekFromISR
                0x00000000       0x30 build/mcp9808/production/_ext/404212886/queue.o
 .text.uxQueueMessagesWaiting
                0x00000000       0x12 build/mcp9808/production/_ext/404212886/queue.o
 .text.uxQueueSpacesAvailable
                0x00000000       0x16 build/mcp9808/production/_ext/404212886/queue.o
 .text.uxQueueMessagesWaitingFromISR
                0x00000000        0x4 build/mcp9808/production/_ext/404212886/queue.o
 .text.vQueueDelete
                0x00000000        0x8 build/mcp9808/production/_ext/404212886/queue.o
 .text.xQueueIsQueueEmptyFromISR
                0x00000000        0xa build/mcp9808/production/_ext/404212886/queue.o
 .text.xQueueIsQueueFullFromISR
                0x00000000        0xe build/mcp9808/production/_ext/404212886/queue.o
 .text          0x00000000        0x0 build/mcp9808/production/_ext/404212886/stream_buffer.o
 .data          0x00000000        0x0 build/mcp9808/production/_ext/404212886/stream_buffer.o
 .bss           0x00000000        0x0 build/mcp9808/production/_ext/404212886/stream_buffer.o
 .text.prvBytesInBuffer
                0x00000000       0x12 build/mcp9808/production/_ext/404212886/stream_buffer.o
 .text.prvWriteBytesToBuffer
                0x00000000       0x40 build/mcp9808/production/_ext/404212886/stream_buffer.o
 .text.prvWriteMessageToBuffer
                0x00000000       0x4e build/mcp9808/production/_ext/404212886/stream_buffer.o
 .text.prvReadBytesFromBuffer
                0x00000000       0x42 build/mcp9808/production/_ext/404212886/stream_buffer.o
 .text.prvReadMessageFromBuffer
                0x00000000       0x4e build/mcp9808/production/_ext/404212886/stream_buffer.o
 .text.xStreamBufferGenericCreate
                0x00000000       0x42 build/mcp9808/production/_ext/404212886/stream_buffer.o
 .text.vStreamBufferDelete
                0x00000000       0x1a build/mcp9808/production/_ext/404212886/stream_buffer.o
 .text.xStreamBufferReset
                0x00000000       0x44 build/mcp9808/production/_ext/404212886/stream_buffer.o
 .text.xStreamBufferSetTriggerLevel
                0x00000000       0x14 build/mcp9808/production/_ext/404212886/stream_buffer.o
 .text.xStreamBufferSpacesAvailable
                0x00000000       0x20 build/mcp9808/production/_ext/404212886/stream_buffer.o
 .text.xStreamBufferBytesAvailable
                0x00000000        0x8 build/mcp9808/production/_ext/404212886/stream_buffer.o
 .text.xStreamBufferSend
                0x00000000       0xd8 build/mcp9808/production/_ext/404212886/stream_buffer.o
 .text.xStreamBufferSendFromISR
                0x00000000       0x78 build/mcp9808/production/_ext/404212886/stream_buffer.o
 .text.xStreamBufferReceive
                0x00000000       0xa4 build/mcp9808/production/_ext/404212886/stream_buffer.o
 .text.xStreamBufferNextMessageLengthBytes
                0x00000000       0x32 build/mcp9808/production/_ext/404212886/stream_buffer.o
 .text.xStreamBufferReceiveFromISR
                0x00000000       0x6c build/mcp9808/production/_ext/404212886/stream_buffer.o
 .text.xStreamBufferIsEmpty
                0x00000000        0xe build/mcp9808/production/_ext/404212886/stream_buffer.o
 .text.xStreamBufferIsFull
                0x00000000       0x18 build/mcp9808/production/_ext/404212886/stream_buffer.o
 .text.xStreamBufferSendCompletedFromISR
                0x00000000       0x40 build/mcp9808/production/_ext/404212886/stream_buffer.o
 .text.xStreamBufferReceiveCompletedFromISR
                0x00000000       0x40 build/mcp9808/production/_ext/404212886/stream_buffer.o
 .debug_info    0x00000000     0x1d19 build/mcp9808/production/_ext/404212886/stream_buffer.o
 .debug_abbrev  0x00000000      0x318 build/mcp9808/production/_ext/404212886/stream_buffer.o
 .debug_loc     0x00000000     0x1a59 build/mcp9808/production/_ext/404212886/stream_buffer.o
 .debug_aranges
                0x00000000       0xb8 build/mcp9808/production/_ext/404212886/stream_buffer.o
 .debug_ranges  0x00000000       0xd0 build/mcp9808/production/_ext/404212886/stream_buffer.o
 .debug_line    0x00000000      0xab9 build/mcp9808/production/_ext/404212886/stream_buffer.o
 .debug_str     0x00000000      0x267 build/mcp9808/production/_ext/404212886/stream_buffer.o
 .comment       0x00000000       0x2c build/mcp9808/production/_ext/404212886/stream_buffer.o
 .debug_frame   0x00000000      0x27c build/mcp9808/production/_ext/404212886/stream_buffer.o
 .ARM.attributes
                0x00000000       0x34 build/mcp9808/production/_ext/404212886/stream_buffer.o
 .text          0x00000000        0x0 build/mcp9808/production/_ext/404212886/timers.o
 .data          0x00000000        0x0 build/mcp9808/production/_ext/404212886/timers.o
 .bss           0x00000000        0x0 build/mcp9808/production/_ext/404212886/timers.o
 .debug_info    0x00000000      0x2e1 build/mcp9808/production/_ext/404212886/timers.o
 .debug_abbrev  0x00000000       0x1b build/mcp9808/production/_ext/404212886/timers.o
 .debug_aranges
                0x00000000       0x18 build/mcp9808/production/_ext/404212886/timers.o
 .debug_line    0x00000000       0x1d build/mcp9808/production/_ext/404212886/timers.o
 .debug_str     0x00000000        0x0 build/mcp9808/production/_ext/404212886/timers.o
 .comment       0x00000000       0x2c build/mcp9808/production/_ext/404212886/timers.o
 .ARM.attributes
                0x00000000       0x39 build/mcp9808/production/_ext/404212886/timers.o
 .text          0x00000000        0x0 build/mcp9808/production/_ext/404212886/FreeRTOS_tasks.o
 .data          0x00000000        0x0 build/mcp9808/production/_ext/404212886/FreeRTOS_tasks.o
 .bss           0x00000000        0x0 build/mcp9808/production/_ext/404212886/FreeRTOS_tasks.o
 .text.vTaskDelete
                0x00000000       0xd4 build/mcp9808/production/_ext/404212886/FreeRTOS_tasks.o
 .text.uxTaskPriorityGet
                0x00000000       0x20 build/mcp9808/production/_ext/404212886/FreeRTOS_tasks.o
 .text.uxTaskPriorityGetFromISR
                0x00000000       0x28 build/mcp9808/production/_ext/404212886/FreeRTOS_tasks.o
 .text.vTaskPrioritySet
                0x00000000       0xec build/mcp9808/production/_ext/404212886/FreeRTOS_tasks.o
 .text.vTaskResume
                0x00000000       0xa4 build/mcp9808/production/_ext/404212886/FreeRTOS_tasks.o
 .text.vTaskEndScheduler
                0x00000000       0x24 build/mcp9808/production/_ext/404212886/FreeRTOS_tasks.o
 .text.xTaskGetTickCount
                0x00000000        0xc build/mcp9808/production/_ext/404212886/FreeRTOS_tasks.o
 .text.xTaskGetTickCountFromISR
                0x00000000        0xc build/mcp9808/production/_ext/404212886/FreeRTOS_tasks.o
 .text.uxTaskGetNumberOfTasks
                0x00000000        0xc build/mcp9808/production/_ext/404212886/FreeRTOS_tasks.o
 .text.pcTaskGetName
                0x00000000       0x14 build/mcp9808/production/_ext/404212886/FreeRTOS_tasks.o
 .text.xTaskDelayUntil
                0x00000000       0x6c build/mcp9808/production/_ext/404212886/FreeRTOS_tasks.o
 .text.xTaskCatchUpTicks
                0x00000000       0x24 build/mcp9808/production/_ext/404212886/FreeRTOS_tasks.o
 .text.vTaskSuspend
                0x00000000       0xcc build/mcp9808/production/_ext/404212886/FreeRTOS_tasks.o
 .text.vTaskPlaceOnUnorderedEventList
                0x00000000       0x3c build/mcp9808/production/_ext/404212886/FreeRTOS_tasks.o
 .text.vTaskRemoveFromUnorderedEventList
                0x00000000       0xb0 build/mcp9808/production/_ext/404212886/FreeRTOS_tasks.o
 .text.vTaskSetTimeOutState
                0x00000000       0x24 build/mcp9808/production/_ext/404212886/FreeRTOS_tasks.o
 .text.xTaskGetCurrentTaskHandle
                0x00000000        0xc build/mcp9808/production/_ext/404212886/FreeRTOS_tasks.o
 .text.uxTaskResetEventItemValue
                0x00000000       0x18 build/mcp9808/production/_ext/404212886/FreeRTOS_tasks.o
 .text.ulTaskGenericNotifyTake
                0x00000000       0x98 build/mcp9808/production/_ext/404212886/FreeRTOS_tasks.o
 .text.xTaskGenericNotifyWait
                0x00000000       0xb4 build/mcp9808/production/_ext/404212886/FreeRTOS_tasks.o
 .text.xTaskGenericNotify
                0x00000000      0x118 build/mcp9808/production/_ext/404212886/FreeRTOS_tasks.o
 .text.xTaskGenericNotifyFromISR
                0x00000000      0x140 build/mcp9808/production/_ext/404212886/FreeRTOS_tasks.o
 .text.vTaskGenericNotifyGiveFromISR
                0x00000000       0xf0 build/mcp9808/production/_ext/404212886/FreeRTOS_tasks.o
 .text.xTaskGenericNotifyStateClear
                0x00000000       0x38 build/mcp9808/production/_ext/404212886/FreeRTOS_tasks.o
 .text.ulTaskGenericNotifyValueClear
                0x00000000       0x30 build/mcp9808/production/_ext/404212886/FreeRTOS_tasks.o
 .text          0x00000000        0x0 build/mcp9808/production/_ext/404212886/croutine.o
 .data          0x00000000        0x0 build/mcp9808/production/_ext/404212886/croutine.o
 .bss           0x00000000        0x0 build/mcp9808/production/_ext/404212886/croutine.o
 .debug_info    0x00000000      0x2e3 build/mcp9808/production/_ext/404212886/croutine.o
 .debug_abbrev  0x00000000       0x1b build/mcp9808/production/_ext/404212886/croutine.o
 .debug_aranges
                0x00000000       0x18 build/mcp9808/production/_ext/404212886/croutine.o
 .debug_line    0x00000000       0x1d build/mcp9808/production/_ext/404212886/croutine.o
 .debug_str     0x00000000        0x0 build/mcp9808/production/_ext/404212886/croutine.o
 .comment       0x00000000       0x2c build/mcp9808/production/_ext/404212886/croutine.o
 .ARM.attributes
                0x00000000       0x39 build/mcp9808/production/_ext/404212886/croutine.o
 .text          0x00000000        0x0 build/mcp9808/production/_ext/404212886/list.o
 .data          0x00000000        0x0 build/mcp9808/production/_ext/404212886/list.o
 .bss           0x00000000        0x0 build/mcp9808/production/_ext/404212886/list.o
 .text.vListInsertEnd
                0x00000000       0x16 build/mcp9808/production/_ext/404212886/list.o
 .text          0x00000000        0x0 build/mcp9808/production/_ext/404212886/event_groups.o
 .data          0x00000000        0x0 build/mcp9808/production/_ext/404212886/event_groups.o
 .bss           0x00000000        0x0 build/mcp9808/production/_ext/404212886/event_groups.o
 .text.xEventGroupCreate
                0x00000000       0x1a build/mcp9808/production/_ext/404212886/event_groups.o
 .text.xEventGroupWaitBits
                0x00000000       0xc0 build/mcp9808/production/_ext/404212886/event_groups.o
 .text.xEventGroupClearBits
                0x00000000       0x1a build/mcp9808/production/_ext/404212886/event_groups.o
 .text.xEventGroupGetBitsFromISR
                0x00000000       0x1c build/mcp9808/production/_ext/404212886/event_groups.o
 .text.xEventGroupSetBits
                0x00000000       0x66 build/mcp9808/production/_ext/404212886/event_groups.o
 .text.xEventGroupSync
                0x00000000       0x90 build/mcp9808/production/_ext/404212886/event_groups.o
 .text.vEventGroupDelete
                0x00000000       0x2a build/mcp9808/production/_ext/404212886/event_groups.o
 .text.vEventGroupSetBitsCallback
                0x00000000        0x8 build/mcp9808/production/_ext/404212886/event_groups.o
 .text.vEventGroupClearBitsCallback
                0x00000000        0x8 build/mcp9808/production/_ext/404212886/event_groups.o
 .debug_info    0x00000000      0xf62 build/mcp9808/production/_ext/404212886/event_groups.o
 .debug_abbrev  0x00000000      0x2ef build/mcp9808/production/_ext/404212886/event_groups.o
 .debug_loc     0x00000000      0xac5 build/mcp9808/production/_ext/404212886/event_groups.o
 .debug_aranges
                0x00000000       0x60 build/mcp9808/production/_ext/404212886/event_groups.o
 .debug_ranges  0x00000000       0x98 build/mcp9808/production/_ext/404212886/event_groups.o
 .debug_line    0x00000000      0x5da build/mcp9808/production/_ext/404212886/event_groups.o
 .debug_str     0x00000000      0x1ac build/mcp9808/production/_ext/404212886/event_groups.o
 .comment       0x00000000       0x2c build/mcp9808/production/_ext/404212886/event_groups.o
 .debug_frame   0x00000000      0x100 build/mcp9808/production/_ext/404212886/event_groups.o
 .ARM.attributes
                0x00000000       0x34 build/mcp9808/production/_ext/404212886/event_groups.o
 .text          0x00000000        0x0 build/mcp9808/production/_ext/1360937237/main.o
 .data          0x00000000        0x0 build/mcp9808/production/_ext/1360937237/main.o
 .bss           0x00000000        0x0 build/mcp9808/production/_ext/1360937237/main.o
 .text          0x00000000        0x0 build/mcp9808/production/_ext/1360937237/app_mcp9808.o
 .data          0x00000000        0x0 build/mcp9808/production/_ext/1360937237/app_mcp9808.o
 .bss           0x00000000        0x0 build/mcp9808/production/_ext/1360937237/app_mcp9808.o
 .text          0x00000000        0x0 c:/program files/microchip/xc32/v4.20/bin/bin/../../lib/gcc/pic32c/8.3.1/../../../../pic32c/lib/thumb/v7e-m+fp/hard\libpic32c.a(data_init_wrapper.o)
 .data          0x00000000        0x0 c:/program files/microchip/xc32/v4.20/bin/bin/../../lib/gcc/pic32c/8.3.1/../../../../pic32c/lib/thumb/v7e-m+fp/hard\libpic32c.a(data_init_wrapper.o)
 .bss           0x00000000        0x0 c:/program files/microchip/xc32/v4.20/bin/bin/../../lib/gcc/pic32c/8.3.1/../../../../pic32c/lib/thumb/v7e-m+fp/hard\libpic32c.a(data_init_wrapper.o)
 .xc_stack_usage
                0x00000000       0x2a c:/program files/microchip/xc32/v4.20/bin/bin/../../lib/gcc/pic32c/8.3.1/../../../../pic32c/lib/thumb/v7e-m+fp/hard\libpic32c.a(data_init_wrapper.o)
 .xc_stack_usage.hdr
                0x00000000        0xe c:/program files/microchip/xc32/v4.20/bin/bin/../../lib/gcc/pic32c/8.3.1/../../../../pic32c/lib/thumb/v7e-m+fp/hard\libpic32c.a(data_init_wrapper.o)
 .text          0x00000000        0x0 c:/program files/microchip/xc32/v4.20/bin/bin/../../lib/gcc/pic32c/8.3.1/../../../../pic32c/lib/thumb/v7e-m+fp/hard\libpic32c.a(data_init_0_1.o)
 .data          0x00000000        0x0 c:/program files/microchip/xc32/v4.20/bin/bin/../../lib/gcc/pic32c/8.3.1/../../../../pic32c/lib/thumb/v7e-m+fp/hard\libpic32c.a(data_init_0_1.o)
 .xc_stack_usage
                0x00000000       0x2f c:/program files/microchip/xc32/v4.20/bin/bin/../../lib/gcc/pic32c/8.3.1/../../../../pic32c/lib/thumb/v7e-m+fp/hard\libpic32c.a(data_init_0_1.o)
 .xc_stack_usage.hdr
                0x00000000        0xe c:/program files/microchip/xc32/v4.20/bin/bin/../../lib/gcc/pic32c/8.3.1/../../../../pic32c/lib/thumb/v7e-m+fp/hard\libpic32c.a(data_init_0_1.o)
 .text          0x00000000        0x0 c:/program files/microchip/xc32/v4.20/bin/bin/../../lib/gcc/pic32c/8.3.1/../../../../pic32c/lib/thumb/v7e-m+fp/hard\libc-musl.a(__libc_start_main.o)
 .data          0x00000000        0x0 c:/program files/microchip/xc32/v4.20/bin/bin/../../lib/gcc/pic32c/8.3.1/../../../../pic32c/lib/thumb/v7e-m+fp/hard\libc-musl.a(__libc_start_main.o)
 .bss           0x00000000        0x0 c:/program files/microchip/xc32/v4.20/bin/bin/../../lib/gcc/pic32c/8.3.1/../../../../pic32c/lib/thumb/v7e-m+fp/hard\libc-musl.a(__libc_start_main.o)
 .xc_stack_usage
                0x00000000       0x34 c:/program files/microchip/xc32/v4.20/bin/bin/../../lib/gcc/pic32c/8.3.1/../../../../pic32c/lib/thumb/v7e-m+fp/hard\libc-musl.a(__libc_start_main.o)
 .xc_stack_usage.hdr
                0x00000000        0xe c:/program files/microchip/xc32/v4.20/bin/bin/../../lib/gcc/pic32c/8.3.1/../../../../pic32c/lib/thumb/v7e-m+fp/hard\libc-musl.a(__libc_start_main.o)
 .text          0x00000000        0x0 c:/program files/microchip/xc32/v4.20/bin/bin/../../lib/gcc/pic32c/8.3.1/../../../../pic32c/lib/thumb/v7e-m+fp/hard\libc-musl.a(libc.o)
 .data          0x00000000        0x0 c:/program files/microchip/xc32/v4.20/bin/bin/../../lib/gcc/pic32c/8.3.1/../../../../pic32c/lib/thumb/v7e-m+fp/hard\libc-musl.a(libc.o)
 .xc_stack_usage.hdr
                0x00000000        0xe c:/program files/microchip/xc32/v4.20/bin/bin/../../lib/gcc/pic32c/8.3.1/../../../../pic32c/lib/thumb/v7e-m+fp/hard\libc-musl.a(libc.o)
 .text          0x00000000        0x0 c:/program files/microchip/xc32/v4.20/bin/bin/../../lib/gcc/pic32c/8.3.1/../../../../pic32c/lib/thumb/v7e-m+fp/hard\libc-musl.a(malloc.o)
 .data          0x00000000        0x0 c:/program files/microchip/xc32/v4.20/bin/bin/../../lib/gcc/pic32c/8.3.1/../../../../pic32c/lib/thumb/v7e-m+fp/hard\libc-musl.a(malloc.o)
 .xc_stack_usage
                0x00000000       0xeb c:/program files/microchip/xc32/v4.20/bin/bin/../../lib/gcc/pic32c/8.3.1/../../../../pic32c/lib/thumb/v7e-m+fp/hard\libc-musl.a(malloc.o)
 .text.adjust_size
                0x00000000       0x40 c:/program files/microchip/xc32/v4.20/bin/bin/../../lib/gcc/pic32c/8.3.1/../../../../pic32c/lib/thumb/v7e-m+fp/hard\libc-musl.a(malloc.o)
 .text.trim     0x00000000       0x2e c:/program files/microchip/xc32/v4.20/bin/bin/../../lib/gcc/pic32c/8.3.1/../../../../pic32c/lib/thumb/v7e-m+fp/hard\libc-musl.a(malloc.o)
 .text.malloc   0x00000000      0x1b0 c:/program files/microchip/xc32/v4.20/bin/bin/../../lib/gcc/pic32c/8.3.1/../../../../pic32c/lib/thumb/v7e-m+fp/hard\libc-musl.a(malloc.o)
 .text.__malloc0
                0x00000000       0x26 c:/program files/microchip/xc32/v4.20/bin/bin/../../lib/gcc/pic32c/8.3.1/../../../../pic32c/lib/thumb/v7e-m+fp/hard\libc-musl.a(malloc.o)
 .text.realloc  0x00000000       0x90 c:/program files/microchip/xc32/v4.20/bin/bin/../../lib/gcc/pic32c/8.3.1/../../../../pic32c/lib/thumb/v7e-m+fp/hard\libc-musl.a(malloc.o)
 .xc_stack_usage.hdr
                0x00000000        0xe c:/program files/microchip/xc32/v4.20/bin/bin/../../lib/gcc/pic32c/8.3.1/../../../../pic32c/lib/thumb/v7e-m+fp/hard\libc-musl.a(malloc.o)
 .text          0x00000000        0x0 c:/program files/microchip/xc32/v4.20/bin/bin/../../lib/gcc/pic32c/8.3.1/../../../../pic32c/lib/thumb/v7e-m+fp/hard\libc-musl.a(expand_heap.o)
 .data          0x00000000        0x0 c:/program files/microchip/xc32/v4.20/bin/bin/../../lib/gcc/pic32c/8.3.1/../../../../pic32c/lib/thumb/v7e-m+fp/hard\libc-musl.a(expand_heap.o)
 .bss           0x00000000        0x0 c:/program files/microchip/xc32/v4.20/bin/bin/../../lib/gcc/pic32c/8.3.1/../../../../pic32c/lib/thumb/v7e-m+fp/hard\libc-musl.a(expand_heap.o)
 .xc_stack_usage
                0x00000000       0x1b c:/program files/microchip/xc32/v4.20/bin/bin/../../lib/gcc/pic32c/8.3.1/../../../../pic32c/lib/thumb/v7e-m+fp/hard\libc-musl.a(expand_heap.o)
 .text.__expand_heap
                0x00000000       0x16 c:/program files/microchip/xc32/v4.20/bin/bin/../../lib/gcc/pic32c/8.3.1/../../../../pic32c/lib/thumb/v7e-m+fp/hard\libc-musl.a(expand_heap.o)
 .xc_stack_usage.hdr
                0x00000000        0xe c:/program files/microchip/xc32/v4.20/bin/bin/../../lib/gcc/pic32c/8.3.1/../../../../pic32c/lib/thumb/v7e-m+fp/hard\libc-musl.a(expand_heap.o)
 .debug_info    0x00000000      0x378 c:/program files/microchip/xc32/v4.20/bin/bin/../../lib/gcc/pic32c/8.3.1/../../../../pic32c/lib/thumb/v7e-m+fp/hard\libc-musl.a(expand_heap.o)
 .debug_abbrev  0x00000000       0xa5 c:/program files/microchip/xc32/v4.20/bin/bin/../../lib/gcc/pic32c/8.3.1/../../../../pic32c/lib/thumb/v7e-m+fp/hard\libc-musl.a(expand_heap.o)
 .debug_loc     0x00000000       0x7c c:/program files/microchip/xc32/v4.20/bin/bin/../../lib/gcc/pic32c/8.3.1/../../../../pic32c/lib/thumb/v7e-m+fp/hard\libc-musl.a(expand_heap.o)
 .debug_aranges
                0x00000000       0x20 c:/program files/microchip/xc32/v4.20/bin/bin/../../lib/gcc/pic32c/8.3.1/../../../../pic32c/lib/thumb/v7e-m+fp/hard\libc-musl.a(expand_heap.o)
 .debug_ranges  0x00000000       0x10 c:/program files/microchip/xc32/v4.20/bin/bin/../../lib/gcc/pic32c/8.3.1/../../../../pic32c/lib/thumb/v7e-m+fp/hard\libc-musl.a(expand_heap.o)
 .debug_line    0x00000000       0xf5 c:/program files/microchip/xc32/v4.20/bin/bin/../../lib/gcc/pic32c/8.3.1/../../../../pic32c/lib/thumb/v7e-m+fp/hard\libc-musl.a(expand_heap.o)
 .debug_str     0x00000000        0x0 c:/program files/microchip/xc32/v4.20/bin/bin/../../lib/gcc/pic32c/8.3.1/../../../../pic32c/lib/thumb/v7e-m+fp/hard\libc-musl.a(expand_heap.o)
 .comment       0x00000000       0x2c c:/program files/microchip/xc32/v4.20/bin/bin/../../lib/gcc/pic32c/8.3.1/../../../../pic32c/lib/thumb/v7e-m+fp/hard\libc-musl.a(expand_heap.o)
 .note.GNU-stack
                0x00000000        0x0 c:/program files/microchip/xc32/v4.20/bin/bin/../../lib/gcc/pic32c/8.3.1/../../../../pic32c/lib/thumb/v7e-m+fp/hard\libc-musl.a(expand_heap.o)
 .debug_frame   0x00000000       0x28 c:/program files/microchip/xc32/v4.20/bin/bin/../../lib/gcc/pic32c/8.3.1/../../../../pic32c/lib/thumb/v7e-m+fp/hard\libc-musl.a(expand_heap.o)
 .ARM.attributes
                0x00000000       0x36 c:/program files/microchip/xc32/v4.20/bin/bin/../../lib/gcc/pic32c/8.3.1/../../../../pic32c/lib/thumb/v7e-m+fp/hard\libc-musl.a(expand_heap.o)
 .text          0x00000000        0x0 c:/program files/microchip/xc32/v4.20/bin/bin/../../lib/gcc/pic32c/8.3.1/../../../../pic32c/lib/thumb/v7e-m+fp/hard\libc-musl.a(vsnprintf.o)
 .data          0x00000000        0x0 c:/program files/microchip/xc32/v4.20/bin/bin/../../lib/gcc/pic32c/8.3.1/../../../../pic32c/lib/thumb/v7e-m+fp/hard\libc-musl.a(vsnprintf.o)
 .bss           0x00000000        0x0 c:/program files/microchip/xc32/v4.20/bin/bin/../../lib/gcc/pic32c/8.3.1/../../../../pic32c/lib/thumb/v7e-m+fp/hard\libc-musl.a(vsnprintf.o)
 .xc_stack_usage
                0x00000000       0x17 c:/program files/microchip/xc32/v4.20/bin/bin/../../lib/gcc/pic32c/8.3.1/../../../../pic32c/lib/thumb/v7e-m+fp/hard\libc-musl.a(vsnprintf.o)
 .xc_stack_usage.hdr
                0x00000000        0xe c:/program files/microchip/xc32/v4.20/bin/bin/../../lib/gcc/pic32c/8.3.1/../../../../pic32c/lib/thumb/v7e-m+fp/hard\libc-musl.a(vsnprintf.o)
 .text          0x00000000        0x0 c:/program files/microchip/xc32/v4.20/bin/bin/../../lib/gcc/pic32c/8.3.1/../../../../pic32c/lib/thumb/v7e-m+fp/hard\libc-musl.a(puts.o)
 .data          0x00000000        0x0 c:/program files/microchip/xc32/v4.20/bin/bin/../../lib/gcc/pic32c/8.3.1/../../../../pic32c/lib/thumb/v7e-m+fp/hard\libc-musl.a(puts.o)
 .bss           0x00000000        0x0 c:/program files/microchip/xc32/v4.20/bin/bin/../../lib/gcc/pic32c/8.3.1/../../../../pic32c/lib/thumb/v7e-m+fp/hard\libc-musl.a(puts.o)
 .xc_stack_usage
                0x00000000       0x12 c:/program files/microchip/xc32/v4.20/bin/bin/../../lib/gcc/pic32c/8.3.1/../../../../pic32c/lib/thumb/v7e-m+fp/hard\libc-musl.a(puts.o)
 .xc_stack_usage.hdr
                0x00000000        0xe c:/program files/microchip/xc32/v4.20/bin/bin/../../lib/gcc/pic32c/8.3.1/../../../../pic32c/lib/thumb/v7e-m+fp/hard\libc-musl.a(puts.o)
 .text          0x00000000        0x0 c:/program files/microchip/xc32/v4.20/bin/bin/../../lib/gcc/pic32c/8.3.1/../../../../pic32c/lib/thumb/v7e-m+fp/hard\libc-musl.a(sprintf.o)
 .data          0x00000000        0x0 c:/program files/microchip/xc32/v4.20/bin/bin/../../lib/gcc/pic32c/8.3.1/../../../../pic32c/lib/thumb/v7e-m+fp/hard\libc-musl.a(sprintf.o)
 .bss           0x00000000        0x0 c:/program files/microchip/xc32/v4.20/bin/bin/../../lib/gcc/pic32c/8.3.1/../../../../pic32c/lib/thumb/v7e-m+fp/hard\libc-musl.a(sprintf.o)
 .xc_stack_usage
                0x00000000       0x15 c:/program files/microchip/xc32/v4.20/bin/bin/../../lib/gcc/pic32c/8.3.1/../../../../pic32c/lib/thumb/v7e-m+fp/hard\libc-musl.a(sprintf.o)
 .xc_stack_usage.hdr
                0x00000000        0xe c:/program files/microchip/xc32/v4.20/bin/bin/../../lib/gcc/pic32c/8.3.1/../../../../pic32c/lib/thumb/v7e-m+fp/hard\libc-musl.a(sprintf.o)
 .text          0x00000000        0x0 c:/program files/microchip/xc32/v4.20/bin/bin/../../lib/gcc/pic32c/8.3.1/../../../../pic32c/lib/thumb/v7e-m+fp/hard\libc-musl.a(vsprintf.o)
 .data          0x00000000        0x0 c:/program files/microchip/xc32/v4.20/bin/bin/../../lib/gcc/pic32c/8.3.1/../../../../pic32c/lib/thumb/v7e-m+fp/hard\libc-musl.a(vsprintf.o)
 .bss           0x00000000        0x0 c:/program files/microchip/xc32/v4.20/bin/bin/../../lib/gcc/pic32c/8.3.1/../../../../pic32c/lib/thumb/v7e-m+fp/hard\libc-musl.a(vsprintf.o)
 .xc_stack_usage
                0x00000000       0x16 c:/program files/microchip/xc32/v4.20/bin/bin/../../lib/gcc/pic32c/8.3.1/../../../../pic32c/lib/thumb/v7e-m+fp/hard\libc-musl.a(vsprintf.o)
 .xc_stack_usage.hdr
                0x00000000        0xe c:/program files/microchip/xc32/v4.20/bin/bin/../../lib/gcc/pic32c/8.3.1/../../../../pic32c/lib/thumb/v7e-m+fp/hard\libc-musl.a(vsprintf.o)
 .text          0x00000000        0x0 c:/program files/microchip/xc32/v4.20/bin/bin/../../lib/gcc/pic32c/8.3.1/../../../../pic32c/lib/thumb/v7e-m+fp/hard\libc-musl.a(memcpy.o)
 .data          0x00000000        0x0 c:/program files/microchip/xc32/v4.20/bin/bin/../../lib/gcc/pic32c/8.3.1/../../../../pic32c/lib/thumb/v7e-m+fp/hard\libc-musl.a(memcpy.o)
 .bss           0x00000000        0x0 c:/program files/microchip/xc32/v4.20/bin/bin/../../lib/gcc/pic32c/8.3.1/../../../../pic32c/lib/thumb/v7e-m+fp/hard\libc-musl.a(memcpy.o)
 .xc_stack_usage
                0x00000000       0x14 c:/program files/microchip/xc32/v4.20/bin/bin/../../lib/gcc/pic32c/8.3.1/../../../../pic32c/lib/thumb/v7e-m+fp/hard\libc-musl.a(memcpy.o)
 .xc_stack_usage.hdr
                0x00000000        0xe c:/program files/microchip/xc32/v4.20/bin/bin/../../lib/gcc/pic32c/8.3.1/../../../../pic32c/lib/thumb/v7e-m+fp/hard\libc-musl.a(memcpy.o)
 .text          0x00000000        0x0 c:/program files/microchip/xc32/v4.20/bin/bin/../../lib/gcc/pic32c/8.3.1/../../../../pic32c/lib/thumb/v7e-m+fp/hard\libc-musl.a(memset.o)
 .data          0x00000000        0x0 c:/program files/microchip/xc32/v4.20/bin/bin/../../lib/gcc/pic32c/8.3.1/../../../../pic32c/lib/thumb/v7e-m+fp/hard\libc-musl.a(memset.o)
 .bss           0x00000000        0x0 c:/program files/microchip/xc32/v4.20/bin/bin/../../lib/gcc/pic32c/8.3.1/../../../../pic32c/lib/thumb/v7e-m+fp/hard\libc-musl.a(memset.o)
 .xc_stack_usage
                0x00000000       0x14 c:/program files/microchip/xc32/v4.20/bin/bin/../../lib/gcc/pic32c/8.3.1/../../../../pic32c/lib/thumb/v7e-m+fp/hard\libc-musl.a(memset.o)
 .xc_stack_usage.hdr
                0x00000000        0xe c:/program files/microchip/xc32/v4.20/bin/bin/../../lib/gcc/pic32c/8.3.1/../../../../pic32c/lib/thumb/v7e-m+fp/hard\libc-musl.a(memset.o)
 .text          0x00000000        0x0 c:/program files/microchip/xc32/v4.20/bin/bin/../../lib/gcc/pic32c/8.3.1/../../../../pic32c/lib/thumb/v7e-m+fp/hard\libc-musl.a(strlen.o)
 .data          0x00000000        0x0 c:/program files/microchip/xc32/v4.20/bin/bin/../../lib/gcc/pic32c/8.3.1/../../../../pic32c/lib/thumb/v7e-m+fp/hard\libc-musl.a(strlen.o)
 .bss           0x00000000        0x0 c:/program files/microchip/xc32/v4.20/bin/bin/../../lib/gcc/pic32c/8.3.1/../../../../pic32c/lib/thumb/v7e-m+fp/hard\libc-musl.a(strlen.o)
 .xc_stack_usage
                0x00000000       0x14 c:/program files/microchip/xc32/v4.20/bin/bin/../../lib/gcc/pic32c/8.3.1/../../../../pic32c/lib/thumb/v7e-m+fp/hard\libc-musl.a(strlen.o)
 .xc_stack_usage.hdr
                0x00000000        0xe c:/program files/microchip/xc32/v4.20/bin/bin/../../lib/gcc/pic32c/8.3.1/../../../../pic32c/lib/thumb/v7e-m+fp/hard\libc-musl.a(strlen.o)
 .text          0x00000000        0x0 c:/program files/microchip/xc32/v4.20/bin/bin/../../lib/gcc/pic32c/8.3.1/../../../../pic32c/lib/thumb/v7e-m+fp/hard\libc-musl.a(strchr.o)
 .data          0x00000000        0x0 c:/program files/microchip/xc32/v4.20/bin/bin/../../lib/gcc/pic32c/8.3.1/../../../../pic32c/lib/thumb/v7e-m+fp/hard\libc-musl.a(strchr.o)
 .bss           0x00000000        0x0 c:/program files/microchip/xc32/v4.20/bin/bin/../../lib/gcc/pic32c/8.3.1/../../../../pic32c/lib/thumb/v7e-m+fp/hard\libc-musl.a(strchr.o)
 .xc_stack_usage
                0x00000000       0x14 c:/program files/microchip/xc32/v4.20/bin/bin/../../lib/gcc/pic32c/8.3.1/../../../../pic32c/lib/thumb/v7e-m+fp/hard\libc-musl.a(strchr.o)
 .xc_stack_usage.hdr
                0x00000000        0xe c:/program files/microchip/xc32/v4.20/bin/bin/../../lib/gcc/pic32c/8.3.1/../../../../pic32c/lib/thumb/v7e-m+fp/hard\libc-musl.a(strchr.o)
 .text          0x00000000        0x0 c:/program files/microchip/xc32/v4.20/bin/bin/../../lib/gcc/pic32c/8.3.1/../../../../pic32c/lib/thumb/v7e-m+fp/hard\libc-musl.a(strchrnul.o)
 .data          0x00000000        0x0 c:/program files/microchip/xc32/v4.20/bin/bin/../../lib/gcc/pic32c/8.3.1/../../../../pic32c/lib/thumb/v7e-m+fp/hard\libc-musl.a(strchrnul.o)
 .bss           0x00000000        0x0 c:/program files/microchip/xc32/v4.20/bin/bin/../../lib/gcc/pic32c/8.3.1/../../../../pic32c/lib/thumb/v7e-m+fp/hard\libc-musl.a(strchrnul.o)
 .xc_stack_usage
                0x00000000       0x19 c:/program files/microchip/xc32/v4.20/bin/bin/../../lib/gcc/pic32c/8.3.1/../../../../pic32c/lib/thumb/v7e-m+fp/hard\libc-musl.a(strchrnul.o)
 .xc_stack_usage.hdr
                0x00000000        0xe c:/program files/microchip/xc32/v4.20/bin/bin/../../lib/gcc/pic32c/8.3.1/../../../../pic32c/lib/thumb/v7e-m+fp/hard\libc-musl.a(strchrnul.o)
 .text          0x00000000        0x0 c:/program files/microchip/xc32/v4.20/bin/bin/../../lib/gcc/pic32c/8.3.1/../../../../pic32c/lib/thumb/v7e-m+fp/hard\libc-musl.a(strcmp.o)
 .data          0x00000000        0x0 c:/program files/microchip/xc32/v4.20/bin/bin/../../lib/gcc/pic32c/8.3.1/../../../../pic32c/lib/thumb/v7e-m+fp/hard\libc-musl.a(strcmp.o)
 .bss           0x00000000        0x0 c:/program files/microchip/xc32/v4.20/bin/bin/../../lib/gcc/pic32c/8.3.1/../../../../pic32c/lib/thumb/v7e-m+fp/hard\libc-musl.a(strcmp.o)
 .xc_stack_usage
                0x00000000       0x14 c:/program files/microchip/xc32/v4.20/bin/bin/../../lib/gcc/pic32c/8.3.1/../../../../pic32c/lib/thumb/v7e-m+fp/hard\libc-musl.a(strcmp.o)
 .xc_stack_usage.hdr
                0x00000000        0xe c:/program files/microchip/xc32/v4.20/bin/bin/../../lib/gcc/pic32c/8.3.1/../../../../pic32c/lib/thumb/v7e-m+fp/hard\libc-musl.a(strcmp.o)
 .text          0x00000000        0x0 c:/program files/microchip/xc32/v4.20/bin/bin/../../lib/gcc/pic32c/8.3.1/../../../../pic32c/lib/thumb/v7e-m+fp/hard\libc-musl.a(strcpy.o)
 .data          0x00000000        0x0 c:/program files/microchip/xc32/v4.20/bin/bin/../../lib/gcc/pic32c/8.3.1/../../../../pic32c/lib/thumb/v7e-m+fp/hard\libc-musl.a(strcpy.o)
 .bss           0x00000000        0x0 c:/program files/microchip/xc32/v4.20/bin/bin/../../lib/gcc/pic32c/8.3.1/../../../../pic32c/lib/thumb/v7e-m+fp/hard\libc-musl.a(strcpy.o)
 .xc_stack_usage
                0x00000000       0x14 c:/program files/microchip/xc32/v4.20/bin/bin/../../lib/gcc/pic32c/8.3.1/../../../../pic32c/lib/thumb/v7e-m+fp/hard\libc-musl.a(strcpy.o)
 .xc_stack_usage.hdr
                0x00000000        0xe c:/program files/microchip/xc32/v4.20/bin/bin/../../lib/gcc/pic32c/8.3.1/../../../../pic32c/lib/thumb/v7e-m+fp/hard\libc-musl.a(strcpy.o)
 .text          0x00000000        0x0 c:/program files/microchip/xc32/v4.20/bin/bin/../../lib/gcc/pic32c/8.3.1/../../../../pic32c/lib/thumb/v7e-m+fp/hard\libc-musl.a(strncmp.o)
 .data          0x00000000        0x0 c:/program files/microchip/xc32/v4.20/bin/bin/../../lib/gcc/pic32c/8.3.1/../../../../pic32c/lib/thumb/v7e-m+fp/hard\libc-musl.a(strncmp.o)
 .bss           0x00000000        0x0 c:/program files/microchip/xc32/v4.20/bin/bin/../../lib/gcc/pic32c/8.3.1/../../../../pic32c/lib/thumb/v7e-m+fp/hard\libc-musl.a(strncmp.o)
 .xc_stack_usage
                0x00000000       0x15 c:/program files/microchip/xc32/v4.20/bin/bin/../../lib/gcc/pic32c/8.3.1/../../../../pic32c/lib/thumb/v7e-m+fp/hard\libc-musl.a(strncmp.o)
 .xc_stack_usage.hdr
                0x00000000        0xe c:/program files/microchip/xc32/v4.20/bin/bin/../../lib/gcc/pic32c/8.3.1/../../../../pic32c/lib/thumb/v7e-m+fp/hard\libc-musl.a(strncmp.o)
 .text          0x00000000        0x0 c:/program files/microchip/xc32/v4.20/bin/bin/../../lib/gcc/pic32c/8.3.1/../../../../pic32c/lib/thumb/v7e-m+fp/hard\libc-musl.a(strncpy.o)
 .data          0x00000000        0x0 c:/program files/microchip/xc32/v4.20/bin/bin/../../lib/gcc/pic32c/8.3.1/../../../../pic32c/lib/thumb/v7e-m+fp/hard\libc-musl.a(strncpy.o)
 .bss           0x00000000        0x0 c:/program files/microchip/xc32/v4.20/bin/bin/../../lib/gcc/pic32c/8.3.1/../../../../pic32c/lib/thumb/v7e-m+fp/hard\libc-musl.a(strncpy.o)
 .xc_stack_usage
                0x00000000       0x15 c:/program files/microchip/xc32/v4.20/bin/bin/../../lib/gcc/pic32c/8.3.1/../../../../pic32c/lib/thumb/v7e-m+fp/hard\libc-musl.a(strncpy.o)
 .xc_stack_usage.hdr
                0x00000000        0xe c:/program files/microchip/xc32/v4.20/bin/bin/../../lib/gcc/pic32c/8.3.1/../../../../pic32c/lib/thumb/v7e-m+fp/hard\libc-musl.a(strncpy.o)
 .text          0x00000000        0x0 c:/program files/microchip/xc32/v4.20/bin/bin/../../lib/gcc/pic32c/8.3.1/../../../../pic32c/lib/thumb/v7e-m+fp/hard\libc-musl.a(strtok.o)
 .data          0x00000000        0x0 c:/program files/microchip/xc32/v4.20/bin/bin/../../lib/gcc/pic32c/8.3.1/../../../../pic32c/lib/thumb/v7e-m+fp/hard\libc-musl.a(strtok.o)
 .xc_stack_usage
                0x00000000       0x14 c:/program files/microchip/xc32/v4.20/bin/bin/../../lib/gcc/pic32c/8.3.1/../../../../pic32c/lib/thumb/v7e-m+fp/hard\libc-musl.a(strtok.o)
 .xc_stack_usage.hdr
                0x00000000        0xe c:/program files/microchip/xc32/v4.20/bin/bin/../../lib/gcc/pic32c/8.3.1/../../../../pic32c/lib/thumb/v7e-m+fp/hard\libc-musl.a(strtok.o)
 .text          0x00000000        0x0 c:/program files/microchip/xc32/v4.20/bin/bin/../../lib/gcc/pic32c/8.3.1/../../../../pic32c/lib/thumb/v7e-m+fp/hard\libc-musl.a(__environ.o)
 .data          0x00000000        0x0 c:/program files/microchip/xc32/v4.20/bin/bin/../../lib/gcc/pic32c/8.3.1/../../../../pic32c/lib/thumb/v7e-m+fp/hard\libc-musl.a(__environ.o)
 .xc_stack_usage.hdr
                0x00000000        0xe c:/program files/microchip/xc32/v4.20/bin/bin/../../lib/gcc/pic32c/8.3.1/../../../../pic32c/lib/thumb/v7e-m+fp/hard\libc-musl.a(__environ.o)
 .text          0x00000000        0x0 c:/program files/microchip/xc32/v4.20/bin/bin/../../lib/gcc/pic32c/8.3.1/../../../../pic32c/lib/thumb/v7e-m+fp/hard\libc-musl.a(__errno_location.o)
 .data          0x00000000        0x0 c:/program files/microchip/xc32/v4.20/bin/bin/../../lib/gcc/pic32c/8.3.1/../../../../pic32c/lib/thumb/v7e-m+fp/hard\libc-musl.a(__errno_location.o)
 .xc_stack_usage.hdr
                0x00000000        0xe c:/program files/microchip/xc32/v4.20/bin/bin/../../lib/gcc/pic32c/8.3.1/../../../../pic32c/lib/thumb/v7e-m+fp/hard\libc-musl.a(__errno_location.o)
 .text          0x00000000        0x0 c:/program files/microchip/xc32/v4.20/bin/bin/../../lib/gcc/pic32c/8.3.1/../../../../pic32c/lib/thumb/v7e-m+fp/hard\libc-musl.a(fputs.o)
 .data          0x00000000        0x0 c:/program files/microchip/xc32/v4.20/bin/bin/../../lib/gcc/pic32c/8.3.1/../../../../pic32c/lib/thumb/v7e-m+fp/hard\libc-musl.a(fputs.o)
 .bss           0x00000000        0x0 c:/program files/microchip/xc32/v4.20/bin/bin/../../lib/gcc/pic32c/8.3.1/../../../../pic32c/lib/thumb/v7e-m+fp/hard\libc-musl.a(fputs.o)
 .xc_stack_usage
                0x00000000       0x13 c:/program files/microchip/xc32/v4.20/bin/bin/../../lib/gcc/pic32c/8.3.1/../../../../pic32c/lib/thumb/v7e-m+fp/hard\libc-musl.a(fputs.o)
 .xc_stack_usage.hdr
                0x00000000        0xe c:/program files/microchip/xc32/v4.20/bin/bin/../../lib/gcc/pic32c/8.3.1/../../../../pic32c/lib/thumb/v7e-m+fp/hard\libc-musl.a(fputs.o)
 .text          0x00000000        0x0 c:/program files/microchip/xc32/v4.20/bin/bin/../../lib/gcc/pic32c/8.3.1/../../../../pic32c/lib/thumb/v7e-m+fp/hard\libc-musl.a(fwrite.o)
 .data          0x00000000        0x0 c:/program files/microchip/xc32/v4.20/bin/bin/../../lib/gcc/pic32c/8.3.1/../../../../pic32c/lib/thumb/v7e-m+fp/hard\libc-musl.a(fwrite.o)
 .bss           0x00000000        0x0 c:/program files/microchip/xc32/v4.20/bin/bin/../../lib/gcc/pic32c/8.3.1/../../../../pic32c/lib/thumb/v7e-m+fp/hard\libc-musl.a(fwrite.o)
 .xc_stack_usage
                0x00000000       0x2e c:/program files/microchip/xc32/v4.20/bin/bin/../../lib/gcc/pic32c/8.3.1/../../../../pic32c/lib/thumb/v7e-m+fp/hard\libc-musl.a(fwrite.o)
 .xc_stack_usage.hdr
                0x00000000        0xe c:/program files/microchip/xc32/v4.20/bin/bin/../../lib/gcc/pic32c/8.3.1/../../../../pic32c/lib/thumb/v7e-m+fp/hard\libc-musl.a(fwrite.o)
 .text          0x00000000        0x0 c:/program files/microchip/xc32/v4.20/bin/bin/../../lib/gcc/pic32c/8.3.1/../../../../pic32c/lib/thumb/v7e-m+fp/hard\libc-musl.a(putc.o)
 .data          0x00000000        0x0 c:/program files/microchip/xc32/v4.20/bin/bin/../../lib/gcc/pic32c/8.3.1/../../../../pic32c/lib/thumb/v7e-m+fp/hard\libc-musl.a(putc.o)
 .bss           0x00000000        0x0 c:/program files/microchip/xc32/v4.20/bin/bin/../../lib/gcc/pic32c/8.3.1/../../../../pic32c/lib/thumb/v7e-m+fp/hard\libc-musl.a(putc.o)
 .xc_stack_usage
                0x00000000       0x4f c:/program files/microchip/xc32/v4.20/bin/bin/../../lib/gcc/pic32c/8.3.1/../../../../pic32c/lib/thumb/v7e-m+fp/hard\libc-musl.a(putc.o)
 .xc_stack_usage.hdr
                0x00000000        0xe c:/program files/microchip/xc32/v4.20/bin/bin/../../lib/gcc/pic32c/8.3.1/../../../../pic32c/lib/thumb/v7e-m+fp/hard\libc-musl.a(putc.o)
 .text          0x00000000        0x0 c:/program files/microchip/xc32/v4.20/bin/bin/../../lib/gcc/pic32c/8.3.1/../../../../pic32c/lib/thumb/v7e-m+fp/hard\libc-musl.a(stdout.o)
 .xc_stack_usage
                0x00000000       0x51 c:/program files/microchip/xc32/v4.20/bin/bin/../../lib/gcc/pic32c/8.3.1/../../../../pic32c/lib/thumb/v7e-m+fp/hard\libc-musl.a(stdout.o)
 .xc_stack_usage.hdr
                0x00000000        0xe c:/program files/microchip/xc32/v4.20/bin/bin/../../lib/gcc/pic32c/8.3.1/../../../../pic32c/lib/thumb/v7e-m+fp/hard\libc-musl.a(stdout.o)
 .text          0x00000000        0x0 c:/program files/microchip/xc32/v4.20/bin/bin/../../lib/gcc/pic32c/8.3.1/../../../../pic32c/lib/thumb/v7e-m+fp/hard\libc-musl.a(vfprintf.o)
 .data          0x00000000        0x0 c:/program files/microchip/xc32/v4.20/bin/bin/../../lib/gcc/pic32c/8.3.1/../../../../pic32c/lib/thumb/v7e-m+fp/hard\libc-musl.a(vfprintf.o)
 .bss           0x00000000        0x0 c:/program files/microchip/xc32/v4.20/bin/bin/../../lib/gcc/pic32c/8.3.1/../../../../pic32c/lib/thumb/v7e-m+fp/hard\libc-musl.a(vfprintf.o)
 .xc_stack_usage
                0x00000000       0x38 c:/program files/microchip/xc32/v4.20/bin/bin/../../lib/gcc/pic32c/8.3.1/../../../../pic32c/lib/thumb/v7e-m+fp/hard\libc-musl.a(vfprintf.o)
 .xc_stack_usage.hdr
                0x00000000        0xe c:/program files/microchip/xc32/v4.20/bin/bin/../../lib/gcc/pic32c/8.3.1/../../../../pic32c/lib/thumb/v7e-m+fp/hard\libc-musl.a(vfprintf.o)
 .text          0x00000000        0x0 c:/program files/microchip/xc32/v4.20/bin/bin/../../lib/gcc/pic32c/8.3.1/../../../../pic32c/lib/thumb/v7e-m+fp/hard\libc-musl.a(stpcpy.o)
 .data          0x00000000        0x0 c:/program files/microchip/xc32/v4.20/bin/bin/../../lib/gcc/pic32c/8.3.1/../../../../pic32c/lib/thumb/v7e-m+fp/hard\libc-musl.a(stpcpy.o)
 .bss           0x00000000        0x0 c:/program files/microchip/xc32/v4.20/bin/bin/../../lib/gcc/pic32c/8.3.1/../../../../pic32c/lib/thumb/v7e-m+fp/hard\libc-musl.a(stpcpy.o)
 .xc_stack_usage
                0x00000000       0x14 c:/program files/microchip/xc32/v4.20/bin/bin/../../lib/gcc/pic32c/8.3.1/../../../../pic32c/lib/thumb/v7e-m+fp/hard\libc-musl.a(stpcpy.o)
 .xc_stack_usage.hdr
                0x00000000        0xe c:/program files/microchip/xc32/v4.20/bin/bin/../../lib/gcc/pic32c/8.3.1/../../../../pic32c/lib/thumb/v7e-m+fp/hard\libc-musl.a(stpcpy.o)
 .text          0x00000000        0x0 c:/program files/microchip/xc32/v4.20/bin/bin/../../lib/gcc/pic32c/8.3.1/../../../../pic32c/lib/thumb/v7e-m+fp/hard\libc-musl.a(stpncpy.o)
 .data          0x00000000        0x0 c:/program files/microchip/xc32/v4.20/bin/bin/../../lib/gcc/pic32c/8.3.1/../../../../pic32c/lib/thumb/v7e-m+fp/hard\libc-musl.a(stpncpy.o)
 .bss           0x00000000        0x0 c:/program files/microchip/xc32/v4.20/bin/bin/../../lib/gcc/pic32c/8.3.1/../../../../pic32c/lib/thumb/v7e-m+fp/hard\libc-musl.a(stpncpy.o)
 .xc_stack_usage
                0x00000000       0x15 c:/program files/microchip/xc32/v4.20/bin/bin/../../lib/gcc/pic32c/8.3.1/../../../../pic32c/lib/thumb/v7e-m+fp/hard\libc-musl.a(stpncpy.o)
 .xc_stack_usage.hdr
                0x00000000        0xe c:/program files/microchip/xc32/v4.20/bin/bin/../../lib/gcc/pic32c/8.3.1/../../../../pic32c/lib/thumb/v7e-m+fp/hard\libc-musl.a(stpncpy.o)
 .text          0x00000000        0x0 c:/program files/microchip/xc32/v4.20/bin/bin/../../lib/gcc/pic32c/8.3.1/../../../../pic32c/lib/thumb/v7e-m+fp/hard\libc-musl.a(strcspn.o)
 .data          0x00000000        0x0 c:/program files/microchip/xc32/v4.20/bin/bin/../../lib/gcc/pic32c/8.3.1/../../../../pic32c/lib/thumb/v7e-m+fp/hard\libc-musl.a(strcspn.o)
 .bss           0x00000000        0x0 c:/program files/microchip/xc32/v4.20/bin/bin/../../lib/gcc/pic32c/8.3.1/../../../../pic32c/lib/thumb/v7e-m+fp/hard\libc-musl.a(strcspn.o)
 .xc_stack_usage
                0x00000000       0x15 c:/program files/microchip/xc32/v4.20/bin/bin/../../lib/gcc/pic32c/8.3.1/../../../../pic32c/lib/thumb/v7e-m+fp/hard\libc-musl.a(strcspn.o)
 .xc_stack_usage.hdr
                0x00000000        0xe c:/program files/microchip/xc32/v4.20/bin/bin/../../lib/gcc/pic32c/8.3.1/../../../../pic32c/lib/thumb/v7e-m+fp/hard\libc-musl.a(strcspn.o)
 .text          0x00000000        0x0 c:/program files/microchip/xc32/v4.20/bin/bin/../../lib/gcc/pic32c/8.3.1/../../../../pic32c/lib/thumb/v7e-m+fp/hard\libc-musl.a(strspn.o)
 .data          0x00000000        0x0 c:/program files/microchip/xc32/v4.20/bin/bin/../../lib/gcc/pic32c/8.3.1/../../../../pic32c/lib/thumb/v7e-m+fp/hard\libc-musl.a(strspn.o)
 .bss           0x00000000        0x0 c:/program files/microchip/xc32/v4.20/bin/bin/../../lib/gcc/pic32c/8.3.1/../../../../pic32c/lib/thumb/v7e-m+fp/hard\libc-musl.a(strspn.o)
 .xc_stack_usage
                0x00000000       0x14 c:/program files/microchip/xc32/v4.20/bin/bin/../../lib/gcc/pic32c/8.3.1/../../../../pic32c/lib/thumb/v7e-m+fp/hard\libc-musl.a(strspn.o)
 .xc_stack_usage.hdr
                0x00000000        0xe c:/program files/microchip/xc32/v4.20/bin/bin/../../lib/gcc/pic32c/8.3.1/../../../../pic32c/lib/thumb/v7e-m+fp/hard\libc-musl.a(strspn.o)
 .text          0x00000000        0x0 c:/program files/microchip/xc32/v4.20/bin/bin/../../lib/gcc/pic32c/8.3.1/../../../../pic32c/lib/thumb/v7e-m+fp/hard\libc-musl.a(__io_fmt_needed.o)
 .data          0x00000000        0x0 c:/program files/microchip/xc32/v4.20/bin/bin/../../lib/gcc/pic32c/8.3.1/../../../../pic32c/lib/thumb/v7e-m+fp/hard\libc-musl.a(__io_fmt_needed.o)
 .bss           0x00000000        0x0 c:/program files/microchip/xc32/v4.20/bin/bin/../../lib/gcc/pic32c/8.3.1/../../../../pic32c/lib/thumb/v7e-m+fp/hard\libc-musl.a(__io_fmt_needed.o)
 .xc_stack_usage
                0x00000000       0x1d c:/program files/microchip/xc32/v4.20/bin/bin/../../lib/gcc/pic32c/8.3.1/../../../../pic32c/lib/thumb/v7e-m+fp/hard\libc-musl.a(__io_fmt_needed.o)
 .xc_stack_usage.hdr
                0x00000000        0xe c:/program files/microchip/xc32/v4.20/bin/bin/../../lib/gcc/pic32c/8.3.1/../../../../pic32c/lib/thumb/v7e-m+fp/hard\libc-musl.a(__io_fmt_needed.o)
 .debug_info    0x00000000      0x3ef c:/program files/microchip/xc32/v4.20/bin/bin/../../lib/gcc/pic32c/8.3.1/../../../../pic32c/lib/thumb/v7e-m+fp/hard\libc-musl.a(__io_fmt_needed.o)
 .debug_abbrev  0x00000000       0x6a c:/program files/microchip/xc32/v4.20/bin/bin/../../lib/gcc/pic32c/8.3.1/../../../../pic32c/lib/thumb/v7e-m+fp/hard\libc-musl.a(__io_fmt_needed.o)
 .debug_loc     0x00000000       0x2c c:/program files/microchip/xc32/v4.20/bin/bin/../../lib/gcc/pic32c/8.3.1/../../../../pic32c/lib/thumb/v7e-m+fp/hard\libc-musl.a(__io_fmt_needed.o)
 .debug_aranges
                0x00000000       0x20 c:/program files/microchip/xc32/v4.20/bin/bin/../../lib/gcc/pic32c/8.3.1/../../../../pic32c/lib/thumb/v7e-m+fp/hard\libc-musl.a(__io_fmt_needed.o)
 .debug_ranges  0x00000000       0x10 c:/program files/microchip/xc32/v4.20/bin/bin/../../lib/gcc/pic32c/8.3.1/../../../../pic32c/lib/thumb/v7e-m+fp/hard\libc-musl.a(__io_fmt_needed.o)
 .debug_line    0x00000000       0xcb c:/program files/microchip/xc32/v4.20/bin/bin/../../lib/gcc/pic32c/8.3.1/../../../../pic32c/lib/thumb/v7e-m+fp/hard\libc-musl.a(__io_fmt_needed.o)
 .debug_str     0x00000000       0x9e c:/program files/microchip/xc32/v4.20/bin/bin/../../lib/gcc/pic32c/8.3.1/../../../../pic32c/lib/thumb/v7e-m+fp/hard\libc-musl.a(__io_fmt_needed.o)
 .comment       0x00000000       0x2c c:/program files/microchip/xc32/v4.20/bin/bin/../../lib/gcc/pic32c/8.3.1/../../../../pic32c/lib/thumb/v7e-m+fp/hard\libc-musl.a(__io_fmt_needed.o)
 .note.GNU-stack
                0x00000000        0x0 c:/program files/microchip/xc32/v4.20/bin/bin/../../lib/gcc/pic32c/8.3.1/../../../../pic32c/lib/thumb/v7e-m+fp/hard\libc-musl.a(__io_fmt_needed.o)
 .debug_frame   0x00000000       0x2c c:/program files/microchip/xc32/v4.20/bin/bin/../../lib/gcc/pic32c/8.3.1/../../../../pic32c/lib/thumb/v7e-m+fp/hard\libc-musl.a(__io_fmt_needed.o)
 .ARM.attributes
                0x00000000       0x36 c:/program files/microchip/xc32/v4.20/bin/bin/../../lib/gcc/pic32c/8.3.1/../../../../pic32c/lib/thumb/v7e-m+fp/hard\libc-musl.a(__io_fmt_needed.o)
 .text          0x00000000        0x0 c:/program files/microchip/xc32/v4.20/bin/bin/../../lib/gcc/pic32c/8.3.1/../../../../pic32c/lib/thumb/v7e-m+fp/hard\libc-musl.a(__io_init_needed.o)
 .data          0x00000000        0x0 c:/program files/microchip/xc32/v4.20/bin/bin/../../lib/gcc/pic32c/8.3.1/../../../../pic32c/lib/thumb/v7e-m+fp/hard\libc-musl.a(__io_init_needed.o)
 .bss           0x00000000        0x0 c:/program files/microchip/xc32/v4.20/bin/bin/../../lib/gcc/pic32c/8.3.1/../../../../pic32c/lib/thumb/v7e-m+fp/hard\libc-musl.a(__io_init_needed.o)
 .xc_stack_usage
                0x00000000       0x40 c:/program files/microchip/xc32/v4.20/bin/bin/../../lib/gcc/pic32c/8.3.1/../../../../pic32c/lib/thumb/v7e-m+fp/hard\libc-musl.a(__io_init_needed.o)
 .xc_stack_usage.hdr
                0x00000000        0xe c:/program files/microchip/xc32/v4.20/bin/bin/../../lib/gcc/pic32c/8.3.1/../../../../pic32c/lib/thumb/v7e-m+fp/hard\libc-musl.a(__io_init_needed.o)
 .debug_info    0x00000000      0x364 c:/program files/microchip/xc32/v4.20/bin/bin/../../lib/gcc/pic32c/8.3.1/../../../../pic32c/lib/thumb/v7e-m+fp/hard\libc-musl.a(__io_init_needed.o)
 .debug_abbrev  0x00000000       0x79 c:/program files/microchip/xc32/v4.20/bin/bin/../../lib/gcc/pic32c/8.3.1/../../../../pic32c/lib/thumb/v7e-m+fp/hard\libc-musl.a(__io_init_needed.o)
 .debug_aranges
                0x00000000       0x28 c:/program files/microchip/xc32/v4.20/bin/bin/../../lib/gcc/pic32c/8.3.1/../../../../pic32c/lib/thumb/v7e-m+fp/hard\libc-musl.a(__io_init_needed.o)
 .debug_ranges  0x00000000       0x18 c:/program files/microchip/xc32/v4.20/bin/bin/../../lib/gcc/pic32c/8.3.1/../../../../pic32c/lib/thumb/v7e-m+fp/hard\libc-musl.a(__io_init_needed.o)
 .debug_line    0x00000000      0x137 c:/program files/microchip/xc32/v4.20/bin/bin/../../lib/gcc/pic32c/8.3.1/../../../../pic32c/lib/thumb/v7e-m+fp/hard\libc-musl.a(__io_init_needed.o)
 .debug_str     0x00000000       0x25 c:/program files/microchip/xc32/v4.20/bin/bin/../../lib/gcc/pic32c/8.3.1/../../../../pic32c/lib/thumb/v7e-m+fp/hard\libc-musl.a(__io_init_needed.o)
 .comment       0x00000000       0x2c c:/program files/microchip/xc32/v4.20/bin/bin/../../lib/gcc/pic32c/8.3.1/../../../../pic32c/lib/thumb/v7e-m+fp/hard\libc-musl.a(__io_init_needed.o)
 .note.GNU-stack
                0x00000000        0x0 c:/program files/microchip/xc32/v4.20/bin/bin/../../lib/gcc/pic32c/8.3.1/../../../../pic32c/lib/thumb/v7e-m+fp/hard\libc-musl.a(__io_init_needed.o)
 .debug_frame   0x00000000       0x30 c:/program files/microchip/xc32/v4.20/bin/bin/../../lib/gcc/pic32c/8.3.1/../../../../pic32c/lib/thumb/v7e-m+fp/hard\libc-musl.a(__io_init_needed.o)
 .ARM.attributes
                0x00000000       0x36 c:/program files/microchip/xc32/v4.20/bin/bin/../../lib/gcc/pic32c/8.3.1/../../../../pic32c/lib/thumb/v7e-m+fp/hard\libc-musl.a(__io_init_needed.o)
 .text          0x00000000        0x0 c:/program files/microchip/xc32/v4.20/bin/bin/../../lib/gcc/pic32c/8.3.1/../../../../pic32c/lib/thumb/v7e-m+fp/hard\libc-musl.a(__out.o)
 .data          0x00000000        0x0 c:/program files/microchip/xc32/v4.20/bin/bin/../../lib/gcc/pic32c/8.3.1/../../../../pic32c/lib/thumb/v7e-m+fp/hard\libc-musl.a(__out.o)
 .bss           0x00000000        0x0 c:/program files/microchip/xc32/v4.20/bin/bin/../../lib/gcc/pic32c/8.3.1/../../../../pic32c/lib/thumb/v7e-m+fp/hard\libc-musl.a(__out.o)
 .xc_stack_usage
                0x00000000       0x2d c:/program files/microchip/xc32/v4.20/bin/bin/../../lib/gcc/pic32c/8.3.1/../../../../pic32c/lib/thumb/v7e-m+fp/hard\libc-musl.a(__out.o)
 .text.__fwrite_min
                0x00000000        0x6 c:/program files/microchip/xc32/v4.20/bin/bin/../../lib/gcc/pic32c/8.3.1/../../../../pic32c/lib/thumb/v7e-m+fp/hard\libc-musl.a(__out.o)
 .xc_stack_usage.hdr
                0x00000000        0xe c:/program files/microchip/xc32/v4.20/bin/bin/../../lib/gcc/pic32c/8.3.1/../../../../pic32c/lib/thumb/v7e-m+fp/hard\libc-musl.a(__out.o)
 .text          0x00000000        0x0 c:/program files/microchip/xc32/v4.20/bin/bin/../../lib/gcc/pic32c/8.3.1/../../../../pic32c/lib/thumb/v7e-m+fp/hard\libc-musl.a(__pop_float.o)
 .data          0x00000000        0x0 c:/program files/microchip/xc32/v4.20/bin/bin/../../lib/gcc/pic32c/8.3.1/../../../../pic32c/lib/thumb/v7e-m+fp/hard\libc-musl.a(__pop_float.o)
 .bss           0x00000000        0x0 c:/program files/microchip/xc32/v4.20/bin/bin/../../lib/gcc/pic32c/8.3.1/../../../../pic32c/lib/thumb/v7e-m+fp/hard\libc-musl.a(__pop_float.o)
 .xc_stack_usage
                0x00000000       0x19 c:/program files/microchip/xc32/v4.20/bin/bin/../../lib/gcc/pic32c/8.3.1/../../../../pic32c/lib/thumb/v7e-m+fp/hard\libc-musl.a(__pop_float.o)
 .xc_stack_usage.hdr
                0x00000000        0xe c:/program files/microchip/xc32/v4.20/bin/bin/../../lib/gcc/pic32c/8.3.1/../../../../pic32c/lib/thumb/v7e-m+fp/hard\libc-musl.a(__pop_float.o)
 .text          0x00000000        0x0 c:/program files/microchip/xc32/v4.20/bin/bin/../../lib/gcc/pic32c/8.3.1/../../../../pic32c/lib/thumb/v7e-m+fp/hard\libc-musl.a(__pop_int.o)
 .data          0x00000000        0x0 c:/program files/microchip/xc32/v4.20/bin/bin/../../lib/gcc/pic32c/8.3.1/../../../../pic32c/lib/thumb/v7e-m+fp/hard\libc-musl.a(__pop_int.o)
 .bss           0x00000000        0x0 c:/program files/microchip/xc32/v4.20/bin/bin/../../lib/gcc/pic32c/8.3.1/../../../../pic32c/lib/thumb/v7e-m+fp/hard\libc-musl.a(__pop_int.o)
 .xc_stack_usage
                0x00000000       0x17 c:/program files/microchip/xc32/v4.20/bin/bin/../../lib/gcc/pic32c/8.3.1/../../../../pic32c/lib/thumb/v7e-m+fp/hard\libc-musl.a(__pop_int.o)
 .xc_stack_usage.hdr
                0x00000000        0xe c:/program files/microchip/xc32/v4.20/bin/bin/../../lib/gcc/pic32c/8.3.1/../../../../pic32c/lib/thumb/v7e-m+fp/hard\libc-musl.a(__pop_int.o)
 .text          0x00000000        0x0 c:/program files/microchip/xc32/v4.20/bin/bin/../../lib/gcc/pic32c/8.3.1/../../../../pic32c/lib/thumb/v7e-m+fp/hard\libc-musl.a(__pop_ptr.o)
 .data          0x00000000        0x0 c:/program files/microchip/xc32/v4.20/bin/bin/../../lib/gcc/pic32c/8.3.1/../../../../pic32c/lib/thumb/v7e-m+fp/hard\libc-musl.a(__pop_ptr.o)
 .bss           0x00000000        0x0 c:/program files/microchip/xc32/v4.20/bin/bin/../../lib/gcc/pic32c/8.3.1/../../../../pic32c/lib/thumb/v7e-m+fp/hard\libc-musl.a(__pop_ptr.o)
 .xc_stack_usage
                0x00000000       0x17 c:/program files/microchip/xc32/v4.20/bin/bin/../../lib/gcc/pic32c/8.3.1/../../../../pic32c/lib/thumb/v7e-m+fp/hard\libc-musl.a(__pop_ptr.o)
 .xc_stack_usage.hdr
                0x00000000        0xe c:/program files/microchip/xc32/v4.20/bin/bin/../../lib/gcc/pic32c/8.3.1/../../../../pic32c/lib/thumb/v7e-m+fp/hard\libc-musl.a(__pop_ptr.o)
 .text          0x00000000        0x0 c:/program files/microchip/xc32/v4.20/bin/bin/../../lib/gcc/pic32c/8.3.1/../../../../pic32c/lib/thumb/v7e-m+fp/hard\libc-musl.a(__printf_core.o)
 .data          0x00000000        0x0 c:/program files/microchip/xc32/v4.20/bin/bin/../../lib/gcc/pic32c/8.3.1/../../../../pic32c/lib/thumb/v7e-m+fp/hard\libc-musl.a(__printf_core.o)
 .bss           0x00000000        0x0 c:/program files/microchip/xc32/v4.20/bin/bin/../../lib/gcc/pic32c/8.3.1/../../../../pic32c/lib/thumb/v7e-m+fp/hard\libc-musl.a(__printf_core.o)
 .xc_stack_usage
                0x00000000       0xaf c:/program files/microchip/xc32/v4.20/bin/bin/../../lib/gcc/pic32c/8.3.1/../../../../pic32c/lib/thumb/v7e-m+fp/hard\libc-musl.a(__printf_core.o)
 .text.__string_out
                0x00000000       0x26 c:/program files/microchip/xc32/v4.20/bin/bin/../../lib/gcc/pic32c/8.3.1/../../../../pic32c/lib/thumb/v7e-m+fp/hard\libc-musl.a(__printf_core.o)
 .text.__dummy_fmt3
                0x00000000        0x4 c:/program files/microchip/xc32/v4.20/bin/bin/../../lib/gcc/pic32c/8.3.1/../../../../pic32c/lib/thumb/v7e-m+fp/hard\libc-musl.a(__printf_core.o)
 .text.__dummy_fmt4
                0x00000000        0x4 c:/program files/microchip/xc32/v4.20/bin/bin/../../lib/gcc/pic32c/8.3.1/../../../../pic32c/lib/thumb/v7e-m+fp/hard\libc-musl.a(__printf_core.o)
 .text.__dummy_fmts
                0x00000000        0x4 c:/program files/microchip/xc32/v4.20/bin/bin/../../lib/gcc/pic32c/8.3.1/../../../../pic32c/lib/thumb/v7e-m+fp/hard\libc-musl.a(__printf_core.o)
 .xc_stack_usage.hdr
                0x00000000        0xe c:/program files/microchip/xc32/v4.20/bin/bin/../../lib/gcc/pic32c/8.3.1/../../../../pic32c/lib/thumb/v7e-m+fp/hard\libc-musl.a(__printf_core.o)
 .text          0x00000000        0x0 c:/program files/microchip/xc32/v4.20/bin/bin/../../lib/gcc/pic32c/8.3.1/../../../../pic32c/lib/thumb/v7e-m+fp/hard\libc-musl.a(atoi.o)
 .data          0x00000000        0x0 c:/program files/microchip/xc32/v4.20/bin/bin/../../lib/gcc/pic32c/8.3.1/../../../../pic32c/lib/thumb/v7e-m+fp/hard\libc-musl.a(atoi.o)
 .bss           0x00000000        0x0 c:/program files/microchip/xc32/v4.20/bin/bin/../../lib/gcc/pic32c/8.3.1/../../../../pic32c/lib/thumb/v7e-m+fp/hard\libc-musl.a(atoi.o)
 .xc_stack_usage
                0x00000000       0x12 c:/program files/microchip/xc32/v4.20/bin/bin/../../lib/gcc/pic32c/8.3.1/../../../../pic32c/lib/thumb/v7e-m+fp/hard\libc-musl.a(atoi.o)
 .xc_stack_usage.hdr
                0x00000000        0xe c:/program files/microchip/xc32/v4.20/bin/bin/../../lib/gcc/pic32c/8.3.1/../../../../pic32c/lib/thumb/v7e-m+fp/hard\libc-musl.a(atoi.o)
 .text          0x00000000        0x0 c:/program files/microchip/xc32/v4.20/bin/bin/../../lib/gcc/pic32c/8.3.1/../../../../pic32c/lib/thumb/v7e-m+fp/hard\libc-musl.a(tolower.o)
 .data          0x00000000        0x0 c:/program files/microchip/xc32/v4.20/bin/bin/../../lib/gcc/pic32c/8.3.1/../../../../pic32c/lib/thumb/v7e-m+fp/hard\libc-musl.a(tolower.o)
 .bss           0x00000000        0x0 c:/program files/microchip/xc32/v4.20/bin/bin/../../lib/gcc/pic32c/8.3.1/../../../../pic32c/lib/thumb/v7e-m+fp/hard\libc-musl.a(tolower.o)
 .xc_stack_usage
                0x00000000       0x2e c:/program files/microchip/xc32/v4.20/bin/bin/../../lib/gcc/pic32c/8.3.1/../../../../pic32c/lib/thumb/v7e-m+fp/hard\libc-musl.a(tolower.o)
 .text.__tolower_l
                0x00000000        0x4 c:/program files/microchip/xc32/v4.20/bin/bin/../../lib/gcc/pic32c/8.3.1/../../../../pic32c/lib/thumb/v7e-m+fp/hard\libc-musl.a(tolower.o)
 .xc_stack_usage.hdr
                0x00000000        0xe c:/program files/microchip/xc32/v4.20/bin/bin/../../lib/gcc/pic32c/8.3.1/../../../../pic32c/lib/thumb/v7e-m+fp/hard\libc-musl.a(tolower.o)
 .text          0x00000000        0x0 c:/program files/microchip/xc32/v4.20/bin/bin/../../lib/gcc/pic32c/8.3.1/../../../../pic32c/lib/thumb/v7e-m+fp/hard\libc-musl.a(__fmt_a.o)
 .data          0x00000000        0x0 c:/program files/microchip/xc32/v4.20/bin/bin/../../lib/gcc/pic32c/8.3.1/../../../../pic32c/lib/thumb/v7e-m+fp/hard\libc-musl.a(__fmt_a.o)
 .bss           0x00000000        0x0 c:/program files/microchip/xc32/v4.20/bin/bin/../../lib/gcc/pic32c/8.3.1/../../../../pic32c/lib/thumb/v7e-m+fp/hard\libc-musl.a(__fmt_a.o)
 .xc_stack_usage
                0x00000000       0x15 c:/program files/microchip/xc32/v4.20/bin/bin/../../lib/gcc/pic32c/8.3.1/../../../../pic32c/lib/thumb/v7e-m+fp/hard\libc-musl.a(__fmt_a.o)
 .xc_stack_usage.hdr
                0x00000000        0xe c:/program files/microchip/xc32/v4.20/bin/bin/../../lib/gcc/pic32c/8.3.1/../../../../pic32c/lib/thumb/v7e-m+fp/hard\libc-musl.a(__fmt_a.o)
 .text          0x00000000        0x0 c:/program files/microchip/xc32/v4.20/bin/bin/../../lib/gcc/pic32c/8.3.1/../../../../pic32c/lib/thumb/v7e-m+fp/hard\libc-musl.a(__fmt_d.o)
 .data          0x00000000        0x0 c:/program files/microchip/xc32/v4.20/bin/bin/../../lib/gcc/pic32c/8.3.1/../../../../pic32c/lib/thumb/v7e-m+fp/hard\libc-musl.a(__fmt_d.o)
 .bss           0x00000000        0x0 c:/program files/microchip/xc32/v4.20/bin/bin/../../lib/gcc/pic32c/8.3.1/../../../../pic32c/lib/thumb/v7e-m+fp/hard\libc-musl.a(__fmt_d.o)
 .xc_stack_usage
                0x00000000       0x15 c:/program files/microchip/xc32/v4.20/bin/bin/../../lib/gcc/pic32c/8.3.1/../../../../pic32c/lib/thumb/v7e-m+fp/hard\libc-musl.a(__fmt_d.o)
 .xc_stack_usage.hdr
                0x00000000        0xe c:/program files/microchip/xc32/v4.20/bin/bin/../../lib/gcc/pic32c/8.3.1/../../../../pic32c/lib/thumb/v7e-m+fp/hard\libc-musl.a(__fmt_d.o)
 .text          0x00000000        0x0 c:/program files/microchip/xc32/v4.20/bin/bin/../../lib/gcc/pic32c/8.3.1/../../../../pic32c/lib/thumb/v7e-m+fp/hard\libc-musl.a(__fmt_fp.o)
 .data          0x00000000        0x0 c:/program files/microchip/xc32/v4.20/bin/bin/../../lib/gcc/pic32c/8.3.1/../../../../pic32c/lib/thumb/v7e-m+fp/hard\libc-musl.a(__fmt_fp.o)
 .bss           0x00000000        0x0 c:/program files/microchip/xc32/v4.20/bin/bin/../../lib/gcc/pic32c/8.3.1/../../../../pic32c/lib/thumb/v7e-m+fp/hard\libc-musl.a(__fmt_fp.o)
 .xc_stack_usage
                0x00000000       0x16 c:/program files/microchip/xc32/v4.20/bin/bin/../../lib/gcc/pic32c/8.3.1/../../../../pic32c/lib/thumb/v7e-m+fp/hard\libc-musl.a(__fmt_fp.o)
 .xc_stack_usage.hdr
                0x00000000        0xe c:/program files/microchip/xc32/v4.20/bin/bin/../../lib/gcc/pic32c/8.3.1/../../../../pic32c/lib/thumb/v7e-m+fp/hard\libc-musl.a(__fmt_fp.o)
 .text          0x00000000        0x0 c:/program files/microchip/xc32/v4.20/bin/bin/../../lib/gcc/pic32c/8.3.1/../../../../pic32c/lib/thumb/v7e-m+fp/hard\libc-musl.a(__fmt_o.o)
 .data          0x00000000        0x0 c:/program files/microchip/xc32/v4.20/bin/bin/../../lib/gcc/pic32c/8.3.1/../../../../pic32c/lib/thumb/v7e-m+fp/hard\libc-musl.a(__fmt_o.o)
 .bss           0x00000000        0x0 c:/program files/microchip/xc32/v4.20/bin/bin/../../lib/gcc/pic32c/8.3.1/../../../../pic32c/lib/thumb/v7e-m+fp/hard\libc-musl.a(__fmt_o.o)
 .xc_stack_usage
                0x00000000       0x15 c:/program files/microchip/xc32/v4.20/bin/bin/../../lib/gcc/pic32c/8.3.1/../../../../pic32c/lib/thumb/v7e-m+fp/hard\libc-musl.a(__fmt_o.o)
 .xc_stack_usage.hdr
                0x00000000        0xe c:/program files/microchip/xc32/v4.20/bin/bin/../../lib/gcc/pic32c/8.3.1/../../../../pic32c/lib/thumb/v7e-m+fp/hard\libc-musl.a(__fmt_o.o)
 .text          0x00000000        0x0 c:/program files/microchip/xc32/v4.20/bin/bin/../../lib/gcc/pic32c/8.3.1/../../../../pic32c/lib/thumb/v7e-m+fp/hard\libc-musl.a(__fmt_s.o)
 .data          0x00000000        0x0 c:/program files/microchip/xc32/v4.20/bin/bin/../../lib/gcc/pic32c/8.3.1/../../../../pic32c/lib/thumb/v7e-m+fp/hard\libc-musl.a(__fmt_s.o)
 .bss           0x00000000        0x0 c:/program files/microchip/xc32/v4.20/bin/bin/../../lib/gcc/pic32c/8.3.1/../../../../pic32c/lib/thumb/v7e-m+fp/hard\libc-musl.a(__fmt_s.o)
 .xc_stack_usage
                0x00000000       0x15 c:/program files/microchip/xc32/v4.20/bin/bin/../../lib/gcc/pic32c/8.3.1/../../../../pic32c/lib/thumb/v7e-m+fp/hard\libc-musl.a(__fmt_s.o)
 .xc_stack_usage.hdr
                0x00000000        0xe c:/program files/microchip/xc32/v4.20/bin/bin/../../lib/gcc/pic32c/8.3.1/../../../../pic32c/lib/thumb/v7e-m+fp/hard\libc-musl.a(__fmt_s.o)
 .text          0x00000000        0x0 c:/program files/microchip/xc32/v4.20/bin/bin/../../lib/gcc/pic32c/8.3.1/../../../../pic32c/lib/thumb/v7e-m+fp/hard\libc-musl.a(__fmt_u.o)
 .data          0x00000000        0x0 c:/program files/microchip/xc32/v4.20/bin/bin/../../lib/gcc/pic32c/8.3.1/../../../../pic32c/lib/thumb/v7e-m+fp/hard\libc-musl.a(__fmt_u.o)
 .bss           0x00000000        0x0 c:/program files/microchip/xc32/v4.20/bin/bin/../../lib/gcc/pic32c/8.3.1/../../../../pic32c/lib/thumb/v7e-m+fp/hard\libc-musl.a(__fmt_u.o)
 .xc_stack_usage
                0x00000000       0x2a c:/program files/microchip/xc32/v4.20/bin/bin/../../lib/gcc/pic32c/8.3.1/../../../../pic32c/lib/thumb/v7e-m+fp/hard\libc-musl.a(__fmt_u.o)
 .xc_stack_usage.hdr
                0x00000000        0xe c:/program files/microchip/xc32/v4.20/bin/bin/../../lib/gcc/pic32c/8.3.1/../../../../pic32c/lib/thumb/v7e-m+fp/hard\libc-musl.a(__fmt_u.o)
 .text          0x00000000        0x0 c:/program files/microchip/xc32/v4.20/bin/bin/../../lib/gcc/pic32c/8.3.1/../../../../pic32c/lib/thumb/v7e-m+fp/hard\libc-musl.a(__fmt_x.o)
 .data          0x00000000        0x0 c:/program files/microchip/xc32/v4.20/bin/bin/../../lib/gcc/pic32c/8.3.1/../../../../pic32c/lib/thumb/v7e-m+fp/hard\libc-musl.a(__fmt_x.o)
 .bss           0x00000000        0x0 c:/program files/microchip/xc32/v4.20/bin/bin/../../lib/gcc/pic32c/8.3.1/../../../../pic32c/lib/thumb/v7e-m+fp/hard\libc-musl.a(__fmt_x.o)
 .xc_stack_usage
                0x00000000       0x15 c:/program files/microchip/xc32/v4.20/bin/bin/../../lib/gcc/pic32c/8.3.1/../../../../pic32c/lib/thumb/v7e-m+fp/hard\libc-musl.a(__fmt_x.o)
 .xc_stack_usage.hdr
                0x00000000        0xe c:/program files/microchip/xc32/v4.20/bin/bin/../../lib/gcc/pic32c/8.3.1/../../../../pic32c/lib/thumb/v7e-m+fp/hard\libc-musl.a(__fmt_x.o)
 .text          0x00000000        0x0 c:/program files/microchip/xc32/v4.20/bin/bin/../../lib/gcc/pic32c/8.3.1/../../../../pic32c/lib/thumb/v7e-m+fp/hard\libc-musl.a(__init_stdio.o)
 .data          0x00000000        0x0 c:/program files/microchip/xc32/v4.20/bin/bin/../../lib/gcc/pic32c/8.3.1/../../../../pic32c/lib/thumb/v7e-m+fp/hard\libc-musl.a(__init_stdio.o)
 .bss           0x00000000        0x0 c:/program files/microchip/xc32/v4.20/bin/bin/../../lib/gcc/pic32c/8.3.1/../../../../pic32c/lib/thumb/v7e-m+fp/hard\libc-musl.a(__init_stdio.o)
 .xc_stack_usage
                0x00000000       0x2f c:/program files/microchip/xc32/v4.20/bin/bin/../../lib/gcc/pic32c/8.3.1/../../../../pic32c/lib/thumb/v7e-m+fp/hard\libc-musl.a(__init_stdio.o)
 .xc_stack_usage.hdr
                0x00000000        0xe c:/program files/microchip/xc32/v4.20/bin/bin/../../lib/gcc/pic32c/8.3.1/../../../../pic32c/lib/thumb/v7e-m+fp/hard\libc-musl.a(__init_stdio.o)
 .text          0x00000000        0x0 c:/program files/microchip/xc32/v4.20/bin/bin/../../lib/gcc/pic32c/8.3.1/../../../../pic32c/lib/thumb/v7e-m+fp/hard\libc-musl.a(__io_file_needed.o)
 .data          0x00000000        0x0 c:/program files/microchip/xc32/v4.20/bin/bin/../../lib/gcc/pic32c/8.3.1/../../../../pic32c/lib/thumb/v7e-m+fp/hard\libc-musl.a(__io_file_needed.o)
 .bss           0x00000000        0x0 c:/program files/microchip/xc32/v4.20/bin/bin/../../lib/gcc/pic32c/8.3.1/../../../../pic32c/lib/thumb/v7e-m+fp/hard\libc-musl.a(__io_file_needed.o)
 .xc_stack_usage
                0x00000000       0x1e c:/program files/microchip/xc32/v4.20/bin/bin/../../lib/gcc/pic32c/8.3.1/../../../../pic32c/lib/thumb/v7e-m+fp/hard\libc-musl.a(__io_file_needed.o)
 .xc_stack_usage.hdr
                0x00000000        0xe c:/program files/microchip/xc32/v4.20/bin/bin/../../lib/gcc/pic32c/8.3.1/../../../../pic32c/lib/thumb/v7e-m+fp/hard\libc-musl.a(__io_file_needed.o)
 .debug_info    0x00000000      0x321 c:/program files/microchip/xc32/v4.20/bin/bin/../../lib/gcc/pic32c/8.3.1/../../../../pic32c/lib/thumb/v7e-m+fp/hard\libc-musl.a(__io_file_needed.o)
 .debug_abbrev  0x00000000       0x5f c:/program files/microchip/xc32/v4.20/bin/bin/../../lib/gcc/pic32c/8.3.1/../../../../pic32c/lib/thumb/v7e-m+fp/hard\libc-musl.a(__io_file_needed.o)
 .debug_aranges
                0x00000000       0x20 c:/program files/microchip/xc32/v4.20/bin/bin/../../lib/gcc/pic32c/8.3.1/../../../../pic32c/lib/thumb/v7e-m+fp/hard\libc-musl.a(__io_file_needed.o)
 .debug_ranges  0x00000000       0x10 c:/program files/microchip/xc32/v4.20/bin/bin/../../lib/gcc/pic32c/8.3.1/../../../../pic32c/lib/thumb/v7e-m+fp/hard\libc-musl.a(__io_file_needed.o)
 .debug_line    0x00000000       0xb2 c:/program files/microchip/xc32/v4.20/bin/bin/../../lib/gcc/pic32c/8.3.1/../../../../pic32c/lib/thumb/v7e-m+fp/hard\libc-musl.a(__io_file_needed.o)
 .debug_str     0x00000000        0xd c:/program files/microchip/xc32/v4.20/bin/bin/../../lib/gcc/pic32c/8.3.1/../../../../pic32c/lib/thumb/v7e-m+fp/hard\libc-musl.a(__io_file_needed.o)
 .comment       0x00000000       0x2c c:/program files/microchip/xc32/v4.20/bin/bin/../../lib/gcc/pic32c/8.3.1/../../../../pic32c/lib/thumb/v7e-m+fp/hard\libc-musl.a(__io_file_needed.o)
 .note.GNU-stack
                0x00000000        0x0 c:/program files/microchip/xc32/v4.20/bin/bin/../../lib/gcc/pic32c/8.3.1/../../../../pic32c/lib/thumb/v7e-m+fp/hard\libc-musl.a(__io_file_needed.o)
 .debug_frame   0x00000000       0x20 c:/program files/microchip/xc32/v4.20/bin/bin/../../lib/gcc/pic32c/8.3.1/../../../../pic32c/lib/thumb/v7e-m+fp/hard\libc-musl.a(__io_file_needed.o)
 .ARM.attributes
                0x00000000       0x36 c:/program files/microchip/xc32/v4.20/bin/bin/../../lib/gcc/pic32c/8.3.1/../../../../pic32c/lib/thumb/v7e-m+fp/hard\libc-musl.a(__io_file_needed.o)
 .text          0x00000000        0x0 c:/program files/microchip/xc32/v4.20/bin/bin/../../lib/gcc/pic32c/8.3.1/../../../../pic32c/lib/thumb/v7e-m+fp/hard\libc-musl.a(toupper.o)
 .data          0x00000000        0x0 c:/program files/microchip/xc32/v4.20/bin/bin/../../lib/gcc/pic32c/8.3.1/../../../../pic32c/lib/thumb/v7e-m+fp/hard\libc-musl.a(toupper.o)
 .bss           0x00000000        0x0 c:/program files/microchip/xc32/v4.20/bin/bin/../../lib/gcc/pic32c/8.3.1/../../../../pic32c/lib/thumb/v7e-m+fp/hard\libc-musl.a(toupper.o)
 .xc_stack_usage
                0x00000000       0x2e c:/program files/microchip/xc32/v4.20/bin/bin/../../lib/gcc/pic32c/8.3.1/../../../../pic32c/lib/thumb/v7e-m+fp/hard\libc-musl.a(toupper.o)
 .text.__toupper_l
                0x00000000        0x4 c:/program files/microchip/xc32/v4.20/bin/bin/../../lib/gcc/pic32c/8.3.1/../../../../pic32c/lib/thumb/v7e-m+fp/hard\libc-musl.a(toupper.o)
 .xc_stack_usage.hdr
                0x00000000        0xe c:/program files/microchip/xc32/v4.20/bin/bin/../../lib/gcc/pic32c/8.3.1/../../../../pic32c/lib/thumb/v7e-m+fp/hard\libc-musl.a(toupper.o)
 .xc_stack_usage.hdr
                0x00000000        0xe c:/program files/microchip/xc32/v4.20/bin/bin/../../lib/gcc/pic32c/8.3.1/../../../../pic32c/lib/thumb/v7e-m+fp/hard\libm-emfloat.a(fma.o)
 .xc_stack_usage
                0x00000000       0x11 c:/program files/microchip/xc32/v4.20/bin/bin/../../lib/gcc/pic32c/8.3.1/../../../../pic32c/lib/thumb/v7e-m+fp/hard\libm-emfloat.a(fma.o)
 .xc_stack_usage.hdr
                0x00000000        0xe c:/program files/microchip/xc32/v4.20/bin/bin/../../lib/gcc/pic32c/8.3.1/../../../../pic32c/lib/thumb/v7e-m+fp/hard\libm-emfloat.a(floor.o)
 .xc_stack_usage
                0x00000000       0x13 c:/program files/microchip/xc32/v4.20/bin/bin/../../lib/gcc/pic32c/8.3.1/../../../../pic32c/lib/thumb/v7e-m+fp/hard\libm-emfloat.a(floor.o)
 .xc_stack_usage.hdr
                0x00000000        0xe c:/program files/microchip/xc32/v4.20/bin/bin/../../lib/gcc/pic32c/8.3.1/../../../../pic32c/lib/thumb/v7e-m+fp/hard\libm-emfloat.a(__aeabi_dadd.o)
 .xc_stack_usage
                0x00000000       0x1a c:/program files/microchip/xc32/v4.20/bin/bin/../../lib/gcc/pic32c/8.3.1/../../../../pic32c/lib/thumb/v7e-m+fp/hard\libm-emfloat.a(__aeabi_dadd.o)
 .xc_stack_usage.hdr
                0x00000000        0xe c:/program files/microchip/xc32/v4.20/bin/bin/../../lib/gcc/pic32c/8.3.1/../../../../pic32c/lib/thumb/v7e-m+fp/hard\libm-emfloat.a(__aeabi_dsub.o)
 .xc_stack_usage
                0x00000000       0x1a c:/program files/microchip/xc32/v4.20/bin/bin/../../lib/gcc/pic32c/8.3.1/../../../../pic32c/lib/thumb/v7e-m+fp/hard\libm-emfloat.a(__aeabi_dsub.o)
 .xc_stack_usage.hdr
                0x00000000        0xe c:/program files/microchip/xc32/v4.20/bin/bin/../../lib/gcc/pic32c/8.3.1/../../../../pic32c/lib/thumb/v7e-m+fp/hard\libm-emfloat.a(__aeabi_dmul.o)
 .xc_stack_usage
                0x00000000       0x1a c:/program files/microchip/xc32/v4.20/bin/bin/../../lib/gcc/pic32c/8.3.1/../../../../pic32c/lib/thumb/v7e-m+fp/hard\libm-emfloat.a(__aeabi_dmul.o)
 .xc_stack_usage.hdr
                0x00000000        0xe c:/program files/microchip/xc32/v4.20/bin/bin/../../lib/gcc/pic32c/8.3.1/../../../../pic32c/lib/thumb/v7e-m+fp/hard\libm-emfloat.a(__aeabi_ddiv.o)
 .xc_stack_usage
                0x00000000       0x1a c:/program files/microchip/xc32/v4.20/bin/bin/../../lib/gcc/pic32c/8.3.1/../../../../pic32c/lib/thumb/v7e-m+fp/hard\libm-emfloat.a(__aeabi_ddiv.o)
 .xc_stack_usage.hdr
                0x00000000        0xe c:/program files/microchip/xc32/v4.20/bin/bin/../../lib/gcc/pic32c/8.3.1/../../../../pic32c/lib/thumb/v7e-m+fp/hard\libm-emfloat.a(__aeabi_dcmple.o)
 .xc_stack_usage
                0x00000000       0x1c c:/program files/microchip/xc32/v4.20/bin/bin/../../lib/gcc/pic32c/8.3.1/../../../../pic32c/lib/thumb/v7e-m+fp/hard\libm-emfloat.a(__aeabi_dcmple.o)
 .xc_stack_usage.hdr
                0x00000000        0xe c:/program files/microchip/xc32/v4.20/bin/bin/../../lib/gcc/pic32c/8.3.1/../../../../pic32c/lib/thumb/v7e-m+fp/hard\libm-emfloat.a(__aeabi_dcmpeq.o)
 .xc_stack_usage
                0x00000000       0x1c c:/program files/microchip/xc32/v4.20/bin/bin/../../lib/gcc/pic32c/8.3.1/../../../../pic32c/lib/thumb/v7e-m+fp/hard\libm-emfloat.a(__aeabi_dcmpeq.o)
 .xc_stack_usage.hdr
                0x00000000        0xe c:/program files/microchip/xc32/v4.20/bin/bin/../../lib/gcc/pic32c/8.3.1/../../../../pic32c/lib/thumb/v7e-m+fp/hard\libm-emfloat.a(__aeabi_dcmpgt.o)
 .xc_stack_usage
                0x00000000       0x1c c:/program files/microchip/xc32/v4.20/bin/bin/../../lib/gcc/pic32c/8.3.1/../../../../pic32c/lib/thumb/v7e-m+fp/hard\libm-emfloat.a(__aeabi_dcmpgt.o)
 .xc_stack_usage.hdr
                0x00000000        0xe c:/program files/microchip/xc32/v4.20/bin/bin/../../lib/gcc/pic32c/8.3.1/../../../../pic32c/lib/thumb/v7e-m+fp/hard\libm-emfloat.a(__aeabi_dcmplt.o)
 .xc_stack_usage
                0x00000000       0x1c c:/program files/microchip/xc32/v4.20/bin/bin/../../lib/gcc/pic32c/8.3.1/../../../../pic32c/lib/thumb/v7e-m+fp/hard\libm-emfloat.a(__aeabi_dcmplt.o)
 .xc_stack_usage.hdr
                0x00000000        0xe c:/program files/microchip/xc32/v4.20/bin/bin/../../lib/gcc/pic32c/8.3.1/../../../../pic32c/lib/thumb/v7e-m+fp/hard\libm-emfloat.a(__aeabi_d2iz.o)
 .xc_stack_usage
                0x00000000       0x1a c:/program files/microchip/xc32/v4.20/bin/bin/../../lib/gcc/pic32c/8.3.1/../../../../pic32c/lib/thumb/v7e-m+fp/hard\libm-emfloat.a(__aeabi_d2iz.o)
 .data          0x00000000        0x0 c:/program files/microchip/xc32/v4.20/bin/bin/../../lib/gcc/pic32c/8.3.1/thumb/v7e-m+fp/hard\libgcc.a(_aeabi_uldivmod.o)
 .bss           0x00000000        0x0 c:/program files/microchip/xc32/v4.20/bin/bin/../../lib/gcc/pic32c/8.3.1/thumb/v7e-m+fp/hard\libgcc.a(_aeabi_uldivmod.o)
 .xc_stack_usage.hdr
                0x00000000        0xe c:/program files/microchip/xc32/v4.20/bin/bin/../../lib/gcc/pic32c/8.3.1/thumb/v7e-m+fp/hard\libgcc.a(_aeabi_uldivmod.o)
 .xc_stack_usage
                0x00000000       0x1e c:/program files/microchip/xc32/v4.20/bin/bin/../../lib/gcc/pic32c/8.3.1/thumb/v7e-m+fp/hard\libgcc.a(_aeabi_uldivmod.o)
 .data          0x00000000        0x0 c:/program files/microchip/xc32/v4.20/bin/bin/../../lib/gcc/pic32c/8.3.1/thumb/v7e-m+fp/hard\libgcc.a(_udivmoddi4.o)
 .bss           0x00000000        0x0 c:/program files/microchip/xc32/v4.20/bin/bin/../../lib/gcc/pic32c/8.3.1/thumb/v7e-m+fp/hard\libgcc.a(_udivmoddi4.o)
 .xc_stack_usage
                0x00000000       0x1a c:/program files/microchip/xc32/v4.20/bin/bin/../../lib/gcc/pic32c/8.3.1/thumb/v7e-m+fp/hard\libgcc.a(_udivmoddi4.o)
 .ARM.extab     0x00000000        0x0 c:/program files/microchip/xc32/v4.20/bin/bin/../../lib/gcc/pic32c/8.3.1/thumb/v7e-m+fp/hard\libgcc.a(_udivmoddi4.o)
 .xc_stack_usage.hdr
                0x00000000        0xe c:/program files/microchip/xc32/v4.20/bin/bin/../../lib/gcc/pic32c/8.3.1/thumb/v7e-m+fp/hard\libgcc.a(_udivmoddi4.o)
 .data          0x00000000        0x0 c:/program files/microchip/xc32/v4.20/bin/bin/../../lib/gcc/pic32c/8.3.1/thumb/v7e-m+fp/hard\libgcc.a(_dvmd_tls.o)
 .bss           0x00000000        0x0 c:/program files/microchip/xc32/v4.20/bin/bin/../../lib/gcc/pic32c/8.3.1/thumb/v7e-m+fp/hard\libgcc.a(_dvmd_tls.o)
 .xc_stack_usage.hdr
                0x00000000        0xe c:/program files/microchip/xc32/v4.20/bin/bin/../../lib/gcc/pic32c/8.3.1/thumb/v7e-m+fp/hard\libgcc.a(_dvmd_tls.o)
 .xc_stack_usage
                0x00000000       0x36 c:/program files/microchip/xc32/v4.20/bin/bin/../../lib/gcc/pic32c/8.3.1/thumb/v7e-m+fp/hard\libgcc.a(_dvmd_tls.o)
 .text          0x00000000        0x0 c:/program files/microchip/xc32/v4.20/bin/bin/../../lib/gcc/pic32c/8.3.1/../../../../pic32c/lib/thumb/v7e-m+fp/hard\libpic32c.a(sbrk.o)
 .data          0x00000000        0x0 c:/program files/microchip/xc32/v4.20/bin/bin/../../lib/gcc/pic32c/8.3.1/../../../../pic32c/lib/thumb/v7e-m+fp/hard\libpic32c.a(sbrk.o)
 .bss           0x00000000        0x4 c:/program files/microchip/xc32/v4.20/bin/bin/../../lib/gcc/pic32c/8.3.1/../../../../pic32c/lib/thumb/v7e-m+fp/hard\libpic32c.a(sbrk.o)
 .xc_stack_usage
                0x00000000       0x13 c:/program files/microchip/xc32/v4.20/bin/bin/../../lib/gcc/pic32c/8.3.1/../../../../pic32c/lib/thumb/v7e-m+fp/hard\libpic32c.a(sbrk.o)
 .text._sbrk    0x00000000       0x2c c:/program files/microchip/xc32/v4.20/bin/bin/../../lib/gcc/pic32c/8.3.1/../../../../pic32c/lib/thumb/v7e-m+fp/hard\libpic32c.a(sbrk.o)
 .xc_stack_usage.hdr
                0x00000000        0xe c:/program files/microchip/xc32/v4.20/bin/bin/../../lib/gcc/pic32c/8.3.1/../../../../pic32c/lib/thumb/v7e-m+fp/hard\libpic32c.a(sbrk.o)
 .debug_info    0x00000000      0x27b c:/program files/microchip/xc32/v4.20/bin/bin/../../lib/gcc/pic32c/8.3.1/../../../../pic32c/lib/thumb/v7e-m+fp/hard\libpic32c.a(sbrk.o)
 .debug_abbrev  0x00000000       0x2e c:/program files/microchip/xc32/v4.20/bin/bin/../../lib/gcc/pic32c/8.3.1/../../../../pic32c/lib/thumb/v7e-m+fp/hard\libpic32c.a(sbrk.o)
 .debug_aranges
                0x00000000       0x20 c:/program files/microchip/xc32/v4.20/bin/bin/../../lib/gcc/pic32c/8.3.1/../../../../pic32c/lib/thumb/v7e-m+fp/hard\libpic32c.a(sbrk.o)
 .debug_ranges  0x00000000       0x10 c:/program files/microchip/xc32/v4.20/bin/bin/../../lib/gcc/pic32c/8.3.1/../../../../pic32c/lib/thumb/v7e-m+fp/hard\libpic32c.a(sbrk.o)
 .debug_line    0x00000000       0xbc c:/program files/microchip/xc32/v4.20/bin/bin/../../lib/gcc/pic32c/8.3.1/../../../../pic32c/lib/thumb/v7e-m+fp/hard\libpic32c.a(sbrk.o)
 .debug_str     0x00000000        0x0 c:/program files/microchip/xc32/v4.20/bin/bin/../../lib/gcc/pic32c/8.3.1/../../../../pic32c/lib/thumb/v7e-m+fp/hard\libpic32c.a(sbrk.o)
 .comment       0x00000000       0x2c c:/program files/microchip/xc32/v4.20/bin/bin/../../lib/gcc/pic32c/8.3.1/../../../../pic32c/lib/thumb/v7e-m+fp/hard\libpic32c.a(sbrk.o)
 .debug_frame   0x00000000       0x20 c:/program files/microchip/xc32/v4.20/bin/bin/../../lib/gcc/pic32c/8.3.1/../../../../pic32c/lib/thumb/v7e-m+fp/hard\libpic32c.a(sbrk.o)
 .ARM.attributes
                0x00000000       0x34 c:/program files/microchip/xc32/v4.20/bin/bin/../../lib/gcc/pic32c/8.3.1/../../../../pic32c/lib/thumb/v7e-m+fp/hard\libpic32c.a(sbrk.o)
 .text          0x00000000        0x0 c:/program files/microchip/xc32/v4.20/bin/bin/../../lib/gcc/pic32c/8.3.1/thumb/v7e-m+fp/hard/crtend.o
 .data          0x00000000        0x0 c:/program files/microchip/xc32/v4.20/bin/bin/../../lib/gcc/pic32c/8.3.1/thumb/v7e-m+fp/hard/crtend.o
 .bss           0x00000000        0x0 c:/program files/microchip/xc32/v4.20/bin/bin/../../lib/gcc/pic32c/8.3.1/thumb/v7e-m+fp/hard/crtend.o
 .eh_frame      0x00000000        0x4 c:/program files/microchip/xc32/v4.20/bin/bin/../../lib/gcc/pic32c/8.3.1/thumb/v7e-m+fp/hard/crtend.o
 .xc_stack_usage.hdr
                0x00000000        0xe c:/program files/microchip/xc32/v4.20/bin/bin/../../lib/gcc/pic32c/8.3.1/thumb/v7e-m+fp/hard/crtend.o
 .comment       0x00000000       0x2c c:/program files/microchip/xc32/v4.20/bin/bin/../../lib/gcc/pic32c/8.3.1/thumb/v7e-m+fp/hard/crtend.o
 .ARM.attributes
                0x00000000       0x32 c:/program files/microchip/xc32/v4.20/bin/bin/../../lib/gcc/pic32c/8.3.1/thumb/v7e-m+fp/hard/crtend.o
 .text          0x00000000        0x0 c:/program files/microchip/xc32/v4.20/bin/bin/../../lib/gcc/pic32c/8.3.1/thumb/v7e-m+fp/hard/crtn.o
 .data          0x00000000        0x0 c:/program files/microchip/xc32/v4.20/bin/bin/../../lib/gcc/pic32c/8.3.1/thumb/v7e-m+fp/hard/crtn.o
 .bss           0x00000000        0x0 c:/program files/microchip/xc32/v4.20/bin/bin/../../lib/gcc/pic32c/8.3.1/thumb/v7e-m+fp/hard/crtn.o
 .xc_stack_usage.hdr
                0x00000000        0xe c:/program files/microchip/xc32/v4.20/bin/bin/../../lib/gcc/pic32c/8.3.1/thumb/v7e-m+fp/hard/crtn.o

Memory Configuration

Name             Origin             Length             Attributes
rom              0x00000000         0x00100000         xrl
ram              0x20000000         0x00040000         xw !r
tcm              0x03000000         0x00000000         xw
bkupram          0x47000000         0x00002000
config_00804000  0x00804000         0x00000004
config_00804008  0x00804008         0x00000004
config_00804004  0x00804004         0x00000004
*default*        0x00000000         0xffffffff

Linker script and memory map

LOAD c:/program files/microchip/xc32/v4.20/bin/bin/../../lib/gcc/pic32c/8.3.1/thumb/v7e-m+fp/hard/crti.o
LOAD c:/program files/microchip/xc32/v4.20/bin/bin/../../lib/gcc/pic32c/8.3.1/thumb/v7e-m+fp/hard/crtbegin.o
LOAD build/mcp9808/production/_ext/1998409442/bsp.o
LOAD build/mcp9808/production/_ext/1243884746/drv_mcp9808.o
LOAD build/mcp9808/production/_ext/136144951/drv_i2c.o
LOAD build/mcp9808/production/_ext/1820763632/osal_freertos.o
LOAD build/mcp9808/production/_ext/1885943492/plib_clock.o
LOAD build/mcp9808/production/_ext/1324637020/plib_cmcc.o
LOAD build/mcp9808/production/_ext/1883794006/plib_evsys.o
LOAD build/mcp9808/production/_ext/1324973556/plib_nvic.o
LOAD build/mcp9808/production/_ext/1541565758/plib_nvmctrl.o
LOAD build/mcp9808/production/_ext/1325026707/plib_port.o
LOAD build/mcp9808/production/_ext/1646999677/plib_sercom6_i2c_master.o
LOAD build/mcp9808/production/_ext/1027107927/plib_sercom1_usart.o
LOAD build/mcp9808/production/_ext/605370968/xc32_monitor.o
LOAD build/mcp9808/production/_ext/1595351133/sys_cache.o
LOAD build/mcp9808/production/_ext/1427623807/sys_command.o
LOAD build/mcp9808/production/_ext/1884335987/sys_console.o
LOAD build/mcp9808/production/_ext/1884335987/sys_console_uart.o
LOAD build/mcp9808/production/_ext/1587138469/sys_int.o
LOAD build/mcp9808/production/_ext/1581363856/sys_reset.o
LOAD build/mcp9808/production/_ext/519814254/startup_xc32.o
LOAD build/mcp9808/production/_ext/519814254/initialization.o
LOAD build/mcp9808/production/_ext/519814254/interrupts.o
LOAD build/mcp9808/production/_ext/519814254/freertos_hooks.o
LOAD build/mcp9808/production/_ext/519814254/libc_syscalls.o
LOAD build/mcp9808/production/_ext/519814254/tasks.o
LOAD build/mcp9808/production/_ext/519814254/exceptions.o
LOAD build/mcp9808/production/_ext/246609638/port.o
LOAD build/mcp9808/production/_ext/1665200909/heap_1.o
LOAD build/mcp9808/production/_ext/404212886/queue.o
LOAD build/mcp9808/production/_ext/404212886/stream_buffer.o
LOAD build/mcp9808/production/_ext/404212886/timers.o
LOAD build/mcp9808/production/_ext/404212886/FreeRTOS_tasks.o
LOAD build/mcp9808/production/_ext/404212886/croutine.o
LOAD build/mcp9808/production/_ext/404212886/list.o
LOAD build/mcp9808/production/_ext/404212886/event_groups.o
LOAD build/mcp9808/production/_ext/1360937237/main.o
LOAD build/mcp9808/production/_ext/1360937237/app_mcp9808.o
                0x00000001                __MPLAB_BUILD = 0x1
                0x00100000                __rom_end = (ORIGIN (rom) + LENGTH (rom))
                0x20040000                __ram_end = (ORIGIN (ram) + LENGTH (ram))

.config_00804000
 *(.config_00804000)

.config_00804008
 *(.config_00804008)

.config_00804004
 *(.config_00804004)

.vectors        0x00000000      0x264
                0x00000000                . = ALIGN (0x4)
                0x00000000                _sfixed = .
 *(.vectors .vectors.* .vectors_default .vectors_default.*)
 .vectors.exception_table
                0x00000000      0x264 build/mcp9808/production/_ext/519814254/interrupts.o
                0x00000000                exception_table
 *(.isr_vector)
 *(.reset*)
 *(.after_vectors)

.text           0x00000264       0x20
                0x00000264                . = ALIGN (0x4)
 *(.glue_7t)
 .glue_7t       0x00000264        0x0 linker stubs
 *(.glue_7)
 .glue_7        0x00000264        0x0 linker stubs
 *(.gnu.linkonce.r.*)
 *(.ARM.extab* .gnu.linkonce.armextab.*)
                0x00000264                . = ALIGN (0x4)
 *(.init)
 .init          0x00000264        0x4 c:/program files/microchip/xc32/v4.20/bin/bin/../../lib/gcc/pic32c/8.3.1/thumb/v7e-m+fp/hard/crti.o
                0x00000264                _init
 .init          0x00000268        0x8 c:/program files/microchip/xc32/v4.20/bin/bin/../../lib/gcc/pic32c/8.3.1/thumb/v7e-m+fp/hard/crtn.o
                0x00000270                . = ALIGN (0x4)
                0x00000270                __preinit_array_start = .
 *(.preinit_array)
                0x00000270                __preinit_array_end = .
                0x00000270                . = ALIGN (0x4)
                0x00000270                __init_array_start = .
 *(SORT_BY_NAME(.init_array.*))
 *(.init_array)
 .init_array    0x00000270        0x4 c:/program files/microchip/xc32/v4.20/bin/bin/../../lib/gcc/pic32c/8.3.1/thumb/v7e-m+fp/hard/crtbegin.o
                0x00000274                __init_array_end = .
                0x00000274                . = ALIGN (0x4)
 *crtbegin.o(.ctors)
 *(EXCLUDE_FILE(*crtend.o) .ctors)
 *(SORT_BY_NAME(.ctors.*))
 *crtend.o(.ctors)
                0x00000274                . = ALIGN (0x4)
 *(.fini)
 .fini          0x00000274        0x4 c:/program files/microchip/xc32/v4.20/bin/bin/../../lib/gcc/pic32c/8.3.1/thumb/v7e-m+fp/hard/crti.o
                0x00000274                _fini
 .fini          0x00000278        0x8 c:/program files/microchip/xc32/v4.20/bin/bin/../../lib/gcc/pic32c/8.3.1/thumb/v7e-m+fp/hard/crtn.o
                0x00000280                . = ALIGN (0x4)
                0x00000280                __fini_array_start = .
 *(.fini_array)
 .fini_array    0x00000280        0x4 c:/program files/microchip/xc32/v4.20/bin/bin/../../lib/gcc/pic32c/8.3.1/thumb/v7e-m+fp/hard/crtbegin.o
 *(SORT_BY_NAME(.fini_array.*))
                0x00000284                __fini_array_end = .
 *crtbegin.o(.dtors)
 *(EXCLUDE_FILE(*crtend.o) .dtors)
 *(SORT_BY_NAME(.dtors.*))
 *crtend.o(.dtors)
                0x00000284                . = ALIGN (0x4)
                0x00000284                _efixed = .
                [!provide]                PROVIDE (__exidx_start = .)

.ARM.exidx      0x00000284        0x8
 *(.ARM.exidx* .gnu.linkonce.armexidx.*)
 .ARM.exidx     0x00000284        0x8 c:/program files/microchip/xc32/v4.20/bin/bin/../../lib/gcc/pic32c/8.3.1/thumb/v7e-m+fp/hard\libgcc.a(_udivmoddi4.o)
                [!provide]                PROVIDE (__exidx_end = .)
                0x0000028c                . = ALIGN (0x4)
                0x0000028c                _etext = .

.bss            0x20000000        0x0
                0x20000000                . = ALIGN (0x4)
                0x20000000                __bss_start__ = .
                0x20000000                _sbss = .
                0x20000000                _szero = .
 *(COMMON)
                0x20000000                . = ALIGN (0x4)
                0x20000000                __bss_end__ = .
                0x20000000                _ebss = .
                0x20000000                _ezero = .
                0x20000000                . = ALIGN (0x4)
                0x20000000                _end = .
                0x2003ffff                _ram_end_ = ((ORIGIN (ram) + LENGTH (ram)) - 0x1)

.bkupram_bss
 *(.bkupram_bss .bkupram_bss.*)
 *(.pbss .pbss.*)
                0x00000400                _min_heap_size = 0x400
START GROUP
LOAD c:/program files/microchip/xc32/v4.20/bin/bin/../../lib/gcc/pic32c/8.3.1/../../../../pic32c/lib/thumb/v7e-m+fp/hard\libpic32c.a
LOAD c:/program files/microchip/xc32/v4.20/bin/bin/../../lib/gcc/pic32c/8.3.1/../../../../pic32c/lib/thumb/v7e-m+fp/hard\libm-emfloat.a
LOAD c:/program files/microchip/xc32/v4.20/bin/bin/../../lib/gcc/pic32c/8.3.1/../../../../pic32c/lib/thumb/v7e-m+fp/hard\libc-musl.a
LOAD c:/program files/microchip/xc32/v4.20/bin/bin/../../lib/gcc/pic32c/8.3.1/../../../../pic32c/lib/thumb/v7e-m+fp/hard\libm-emfloat.a
LOAD c:/program files/microchip/xc32/v4.20/bin/bin/../../lib/gcc/pic32c/8.3.1/thumb/v7e-m+fp/hard\libgcc.a
END GROUP
LOAD c:/program files/microchip/xc32/v4.20/bin/bin/../../lib/gcc/pic32c/8.3.1/thumb/v7e-m+fp/hard/crtend.o
LOAD c:/program files/microchip/xc32/v4.20/bin/bin/../../lib/gcc/pic32c/8.3.1/thumb/v7e-m+fp/hard/crtn.o
OUTPUT(dist/mcp9808/production/driver-mcp9808.X.production.elf elf32-littlearm)
LOAD stack
LOAD data_init

.ARM.attributes
                0x00000000       0x32
 .ARM.attributes
                0x00000000       0x1e c:/program files/microchip/xc32/v4.20/bin/bin/../../lib/gcc/pic32c/8.3.1/thumb/v7e-m+fp/hard/crti.o
 .ARM.attributes
                0x0000001e       0x34 c:/program files/microchip/xc32/v4.20/bin/bin/../../lib/gcc/pic32c/8.3.1/thumb/v7e-m+fp/hard/crtbegin.o
 .ARM.attributes
                0x00000052       0x34 build/mcp9808/production/_ext/1998409442/bsp.o
 .ARM.attributes
                0x00000086       0x34 build/mcp9808/production/_ext/1243884746/drv_mcp9808.o
 .ARM.attributes
                0x000000ba       0x34 build/mcp9808/production/_ext/136144951/drv_i2c.o
 .ARM.attributes
                0x000000ee       0x34 build/mcp9808/production/_ext/1820763632/osal_freertos.o
 .ARM.attributes
                0x00000122       0x34 build/mcp9808/production/_ext/1885943492/plib_clock.o
 .ARM.attributes
                0x00000156       0x34 build/mcp9808/production/_ext/1883794006/plib_evsys.o
 .ARM.attributes
                0x0000018a       0x34 build/mcp9808/production/_ext/1324973556/plib_nvic.o
 .ARM.attributes
                0x000001be       0x34 build/mcp9808/production/_ext/1541565758/plib_nvmctrl.o
 .ARM.attributes
                0x000001f2       0x34 build/mcp9808/production/_ext/1325026707/plib_port.o
 .ARM.attributes
                0x00000226       0x34 build/mcp9808/production/_ext/1646999677/plib_sercom6_i2c_master.o
 .ARM.attributes
                0x0000025a       0x34 build/mcp9808/production/_ext/1027107927/plib_sercom1_usart.o
 .ARM.attributes
                0x0000028e       0x34 build/mcp9808/production/_ext/605370968/xc32_monitor.o
 .ARM.attributes
                0x000002c2       0x34 build/mcp9808/production/_ext/1427623807/sys_command.o
 .ARM.attributes
                0x000002f6       0x34 build/mcp9808/production/_ext/1884335987/sys_console.o
 .ARM.attributes
                0x0000032a       0x34 build/mcp9808/production/_ext/1884335987/sys_console_uart.o
 .ARM.attributes
                0x0000035e       0x34 build/mcp9808/production/_ext/1587138469/sys_int.o
 .ARM.attributes
                0x00000392       0x34 build/mcp9808/production/_ext/1581363856/sys_reset.o
 .ARM.attributes
                0x000003c6       0x34 build/mcp9808/production/_ext/519814254/startup_xc32.o
 .ARM.attributes
                0x000003fa       0x34 build/mcp9808/production/_ext/519814254/initialization.o
 .ARM.attributes
                0x0000042e       0x34 build/mcp9808/production/_ext/519814254/interrupts.o
 .ARM.attributes
                0x00000462       0x34 build/mcp9808/production/_ext/519814254/freertos_hooks.o
 .ARM.attributes
                0x00000496       0x34 build/mcp9808/production/_ext/519814254/tasks.o
 .ARM.attributes
                0x000004ca       0x34 build/mcp9808/production/_ext/519814254/exceptions.o
 .ARM.attributes
                0x000004fe       0x34 build/mcp9808/production/_ext/246609638/port.o
 .ARM.attributes
                0x00000532       0x34 build/mcp9808/production/_ext/1665200909/heap_1.o
 .ARM.attributes
                0x00000566       0x34 build/mcp9808/production/_ext/404212886/queue.o
 .ARM.attributes
                0x0000059a       0x34 build/mcp9808/production/_ext/404212886/FreeRTOS_tasks.o
 .ARM.attributes
                0x000005ce       0x34 build/mcp9808/production/_ext/404212886/list.o
 .ARM.attributes
                0x00000602       0x34 build/mcp9808/production/_ext/1360937237/main.o
 .ARM.attributes
                0x00000636       0x34 build/mcp9808/production/_ext/1360937237/app_mcp9808.o
 .ARM.attributes
                0x0000066a       0x34 c:/program files/microchip/xc32/v4.20/bin/bin/../../lib/gcc/pic32c/8.3.1/../../../../pic32c/lib/thumb/v7e-m+fp/hard\libpic32c.a(data_init_wrapper.o)
 .ARM.attributes
                0x0000069e       0x34 c:/program files/microchip/xc32/v4.20/bin/bin/../../lib/gcc/pic32c/8.3.1/../../../../pic32c/lib/thumb/v7e-m+fp/hard\libpic32c.a(data_init_0_1.o)
 .ARM.attributes
                0x000006d2       0x36 c:/program files/microchip/xc32/v4.20/bin/bin/../../lib/gcc/pic32c/8.3.1/../../../../pic32c/lib/thumb/v7e-m+fp/hard\libc-musl.a(__libc_start_main.o)
 .ARM.attributes
                0x00000708       0x34 c:/program files/microchip/xc32/v4.20/bin/bin/../../lib/gcc/pic32c/8.3.1/../../../../pic32c/lib/thumb/v7e-m+fp/hard\libc-musl.a(libc.o)
 .ARM.attributes
                0x0000073c       0x36 c:/program files/microchip/xc32/v4.20/bin/bin/../../lib/gcc/pic32c/8.3.1/../../../../pic32c/lib/thumb/v7e-m+fp/hard\libc-musl.a(malloc.o)
 .ARM.attributes
                0x00000772       0x36 c:/program files/microchip/xc32/v4.20/bin/bin/../../lib/gcc/pic32c/8.3.1/../../../../pic32c/lib/thumb/v7e-m+fp/hard\libc-musl.a(vsnprintf.o)
 .ARM.attributes
                0x000007a8       0x36 c:/program files/microchip/xc32/v4.20/bin/bin/../../lib/gcc/pic32c/8.3.1/../../../../pic32c/lib/thumb/v7e-m+fp/hard\libc-musl.a(puts.o)
 .ARM.attributes
                0x000007de       0x36 c:/program files/microchip/xc32/v4.20/bin/bin/../../lib/gcc/pic32c/8.3.1/../../../../pic32c/lib/thumb/v7e-m+fp/hard\libc-musl.a(sprintf.o)
 .ARM.attributes
                0x00000814       0x36 c:/program files/microchip/xc32/v4.20/bin/bin/../../lib/gcc/pic32c/8.3.1/../../../../pic32c/lib/thumb/v7e-m+fp/hard\libc-musl.a(vsprintf.o)
 .ARM.attributes
                0x0000084a       0x36 c:/program files/microchip/xc32/v4.20/bin/bin/../../lib/gcc/pic32c/8.3.1/../../../../pic32c/lib/thumb/v7e-m+fp/hard\libc-musl.a(memcpy.o)
 .ARM.attributes
                0x00000880       0x36 c:/program files/microchip/xc32/v4.20/bin/bin/../../lib/gcc/pic32c/8.3.1/../../../../pic32c/lib/thumb/v7e-m+fp/hard\libc-musl.a(memset.o)
 .ARM.attributes
                0x000008b6       0x36 c:/program files/microchip/xc32/v4.20/bin/bin/../../lib/gcc/pic32c/8.3.1/../../../../pic32c/lib/thumb/v7e-m+fp/hard\libc-musl.a(strlen.o)
 .ARM.attributes
                0x000008ec       0x36 c:/program files/microchip/xc32/v4.20/bin/bin/../../lib/gcc/pic32c/8.3.1/../../../../pic32c/lib/thumb/v7e-m+fp/hard\libc-musl.a(strchr.o)
 .ARM.attributes
                0x00000922       0x36 c:/program files/microchip/xc32/v4.20/bin/bin/../../lib/gcc/pic32c/8.3.1/../../../../pic32c/lib/thumb/v7e-m+fp/hard\libc-musl.a(strchrnul.o)
 .ARM.attributes
                0x00000958       0x36 c:/program files/microchip/xc32/v4.20/bin/bin/../../lib/gcc/pic32c/8.3.1/../../../../pic32c/lib/thumb/v7e-m+fp/hard\libc-musl.a(strcmp.o)
 .ARM.attributes
                0x0000098e       0x36 c:/program files/microchip/xc32/v4.20/bin/bin/../../lib/gcc/pic32c/8.3.1/../../../../pic32c/lib/thumb/v7e-m+fp/hard\libc-musl.a(strcpy.o)
 .ARM.attributes
                0x000009c4       0x36 c:/program files/microchip/xc32/v4.20/bin/bin/../../lib/gcc/pic32c/8.3.1/../../../../pic32c/lib/thumb/v7e-m+fp/hard\libc-musl.a(strncmp.o)
 .ARM.attributes
                0x000009fa       0x36 c:/program files/microchip/xc32/v4.20/bin/bin/../../lib/gcc/pic32c/8.3.1/../../../../pic32c/lib/thumb/v7e-m+fp/hard\libc-musl.a(strncpy.o)
 .ARM.attributes
                0x00000a30       0x36 c:/program files/microchip/xc32/v4.20/bin/bin/../../lib/gcc/pic32c/8.3.1/../../../../pic32c/lib/thumb/v7e-m+fp/hard\libc-musl.a(strtok.o)
 .ARM.attributes
                0x00000a66       0x34 c:/program files/microchip/xc32/v4.20/bin/bin/../../lib/gcc/pic32c/8.3.1/../../../../pic32c/lib/thumb/v7e-m+fp/hard\libc-musl.a(__environ.o)
 .ARM.attributes
                0x00000a9a       0x34 c:/program files/microchip/xc32/v4.20/bin/bin/../../lib/gcc/pic32c/8.3.1/../../../../pic32c/lib/thumb/v7e-m+fp/hard\libc-musl.a(__errno_location.o)
 .ARM.attributes
                0x00000ace       0x36 c:/program files/microchip/xc32/v4.20/bin/bin/../../lib/gcc/pic32c/8.3.1/../../../../pic32c/lib/thumb/v7e-m+fp/hard\libc-musl.a(fputs.o)
 .ARM.attributes
                0x00000b04       0x36 c:/program files/microchip/xc32/v4.20/bin/bin/../../lib/gcc/pic32c/8.3.1/../../../../pic32c/lib/thumb/v7e-m+fp/hard\libc-musl.a(fwrite.o)
 .ARM.attributes
                0x00000b3a       0x36 c:/program files/microchip/xc32/v4.20/bin/bin/../../lib/gcc/pic32c/8.3.1/../../../../pic32c/lib/thumb/v7e-m+fp/hard\libc-musl.a(putc.o)
 .ARM.attributes
                0x00000b70       0x36 c:/program files/microchip/xc32/v4.20/bin/bin/../../lib/gcc/pic32c/8.3.1/../../../../pic32c/lib/thumb/v7e-m+fp/hard\libc-musl.a(stdout.o)
 .ARM.attributes
                0x00000ba6       0x36 c:/program files/microchip/xc32/v4.20/bin/bin/../../lib/gcc/pic32c/8.3.1/../../../../pic32c/lib/thumb/v7e-m+fp/hard\libc-musl.a(vfprintf.o)
 .ARM.attributes
                0x00000bdc       0x36 c:/program files/microchip/xc32/v4.20/bin/bin/../../lib/gcc/pic32c/8.3.1/../../../../pic32c/lib/thumb/v7e-m+fp/hard\libc-musl.a(stpcpy.o)
 .ARM.attributes
                0x00000c12       0x36 c:/program files/microchip/xc32/v4.20/bin/bin/../../lib/gcc/pic32c/8.3.1/../../../../pic32c/lib/thumb/v7e-m+fp/hard\libc-musl.a(stpncpy.o)
 .ARM.attributes
                0x00000c48       0x36 c:/program files/microchip/xc32/v4.20/bin/bin/../../lib/gcc/pic32c/8.3.1/../../../../pic32c/lib/thumb/v7e-m+fp/hard\libc-musl.a(strcspn.o)
 .ARM.attributes
                0x00000c7e       0x36 c:/program files/microchip/xc32/v4.20/bin/bin/../../lib/gcc/pic32c/8.3.1/../../../../pic32c/lib/thumb/v7e-m+fp/hard\libc-musl.a(strspn.o)
 .ARM.attributes
                0x00000cb4       0x36 c:/program files/microchip/xc32/v4.20/bin/bin/../../lib/gcc/pic32c/8.3.1/../../../../pic32c/lib/thumb/v7e-m+fp/hard\libc-musl.a(__out.o)
 .ARM.attributes
                0x00000cea       0x36 c:/program files/microchip/xc32/v4.20/bin/bin/../../lib/gcc/pic32c/8.3.1/../../../../pic32c/lib/thumb/v7e-m+fp/hard\libc-musl.a(__pop_float.o)
 .ARM.attributes
                0x00000d20       0x36 c:/program files/microchip/xc32/v4.20/bin/bin/../../lib/gcc/pic32c/8.3.1/../../../../pic32c/lib/thumb/v7e-m+fp/hard\libc-musl.a(__pop_int.o)
 .ARM.attributes
                0x00000d56       0x36 c:/program files/microchip/xc32/v4.20/bin/bin/../../lib/gcc/pic32c/8.3.1/../../../../pic32c/lib/thumb/v7e-m+fp/hard\libc-musl.a(__pop_ptr.o)
 .ARM.attributes
                0x00000d8c       0x36 c:/program files/microchip/xc32/v4.20/bin/bin/../../lib/gcc/pic32c/8.3.1/../../../../pic32c/lib/thumb/v7e-m+fp/hard\libc-musl.a(__printf_core.o)
 .ARM.attributes
                0x00000dc2       0x36 c:/program files/microchip/xc32/v4.20/bin/bin/../../lib/gcc/pic32c/8.3.1/../../../../pic32c/lib/thumb/v7e-m+fp/hard\libc-musl.a(atoi.o)
 .ARM.attributes
                0x00000df8       0x36 c:/program files/microchip/xc32/v4.20/bin/bin/../../lib/gcc/pic32c/8.3.1/../../../../pic32c/lib/thumb/v7e-m+fp/hard\libc-musl.a(tolower.o)
 .ARM.attributes
                0x00000e2e       0x36 c:/program files/microchip/xc32/v4.20/bin/bin/../../lib/gcc/pic32c/8.3.1/../../../../pic32c/lib/thumb/v7e-m+fp/hard\libc-musl.a(__fmt_a.o)
 .ARM.attributes
                0x00000e64       0x36 c:/program files/microchip/xc32/v4.20/bin/bin/../../lib/gcc/pic32c/8.3.1/../../../../pic32c/lib/thumb/v7e-m+fp/hard\libc-musl.a(__fmt_d.o)
 .ARM.attributes
                0x00000e9a       0x36 c:/program files/microchip/xc32/v4.20/bin/bin/../../lib/gcc/pic32c/8.3.1/../../../../pic32c/lib/thumb/v7e-m+fp/hard\libc-musl.a(__fmt_fp.o)
 .ARM.attributes
                0x00000ed0       0x36 c:/program files/microchip/xc32/v4.20/bin/bin/../../lib/gcc/pic32c/8.3.1/../../../../pic32c/lib/thumb/v7e-m+fp/hard\libc-musl.a(__fmt_o.o)
 .ARM.attributes
                0x00000f06       0x36 c:/program files/microchip/xc32/v4.20/bin/bin/../../lib/gcc/pic32c/8.3.1/../../../../pic32c/lib/thumb/v7e-m+fp/hard\libc-musl.a(__fmt_s.o)
 .ARM.attributes
                0x00000f3c       0x36 c:/program files/microchip/xc32/v4.20/bin/bin/../../lib/gcc/pic32c/8.3.1/../../../../pic32c/lib/thumb/v7e-m+fp/hard\libc-musl.a(__fmt_u.o)
 .ARM.attributes
                0x00000f72       0x36 c:/program files/microchip/xc32/v4.20/bin/bin/../../lib/gcc/pic32c/8.3.1/../../../../pic32c/lib/thumb/v7e-m+fp/hard\libc-musl.a(__fmt_x.o)
 .ARM.attributes
                0x00000fa8       0x36 c:/program files/microchip/xc32/v4.20/bin/bin/../../lib/gcc/pic32c/8.3.1/../../../../pic32c/lib/thumb/v7e-m+fp/hard\libc-musl.a(__init_stdio.o)
 .ARM.attributes
                0x00000fde       0x36 c:/program files/microchip/xc32/v4.20/bin/bin/../../lib/gcc/pic32c/8.3.1/../../../../pic32c/lib/thumb/v7e-m+fp/hard\libc-musl.a(toupper.o)
 .ARM.attributes
                0x00001014       0x34 c:/program files/microchip/xc32/v4.20/bin/bin/../../lib/gcc/pic32c/8.3.1/../../../../pic32c/lib/thumb/v7e-m+fp/hard\libm-emfloat.a(fma.o)
 .ARM.attributes
                0x00001048       0x34 c:/program files/microchip/xc32/v4.20/bin/bin/../../lib/gcc/pic32c/8.3.1/../../../../pic32c/lib/thumb/v7e-m+fp/hard\libm-emfloat.a(floor.o)
 .ARM.attributes
                0x0000107c       0x20 c:/program files/microchip/xc32/v4.20/bin/bin/../../lib/gcc/pic32c/8.3.1/../../../../pic32c/lib/thumb/v7e-m+fp/hard\libm-emfloat.a(__aeabi_dadd.o)
 .ARM.attributes
                0x0000109c       0x20 c:/program files/microchip/xc32/v4.20/bin/bin/../../lib/gcc/pic32c/8.3.1/../../../../pic32c/lib/thumb/v7e-m+fp/hard\libm-emfloat.a(__aeabi_dsub.o)
 .ARM.attributes
                0x000010bc       0x20 c:/program files/microchip/xc32/v4.20/bin/bin/../../lib/gcc/pic32c/8.3.1/../../../../pic32c/lib/thumb/v7e-m+fp/hard\libm-emfloat.a(__aeabi_dmul.o)
 .ARM.attributes
                0x000010dc       0x20 c:/program files/microchip/xc32/v4.20/bin/bin/../../lib/gcc/pic32c/8.3.1/../../../../pic32c/lib/thumb/v7e-m+fp/hard\libm-emfloat.a(__aeabi_ddiv.o)
 .ARM.attributes
                0x000010fc       0x20 c:/program files/microchip/xc32/v4.20/bin/bin/../../lib/gcc/pic32c/8.3.1/../../../../pic32c/lib/thumb/v7e-m+fp/hard\libm-emfloat.a(__aeabi_dcmple.o)
 .ARM.attributes
                0x0000111c       0x20 c:/program files/microchip/xc32/v4.20/bin/bin/../../lib/gcc/pic32c/8.3.1/../../../../pic32c/lib/thumb/v7e-m+fp/hard\libm-emfloat.a(__aeabi_dcmpeq.o)
 .ARM.attributes
                0x0000113c       0x20 c:/program files/microchip/xc32/v4.20/bin/bin/../../lib/gcc/pic32c/8.3.1/../../../../pic32c/lib/thumb/v7e-m+fp/hard\libm-emfloat.a(__aeabi_dcmpgt.o)
 .ARM.attributes
                0x0000115c       0x20 c:/program files/microchip/xc32/v4.20/bin/bin/../../lib/gcc/pic32c/8.3.1/../../../../pic32c/lib/thumb/v7e-m+fp/hard\libm-emfloat.a(__aeabi_dcmplt.o)
 .ARM.attributes
                0x0000117c       0x20 c:/program files/microchip/xc32/v4.20/bin/bin/../../lib/gcc/pic32c/8.3.1/../../../../pic32c/lib/thumb/v7e-m+fp/hard\libm-emfloat.a(__aeabi_d2iz.o)
 .ARM.attributes
                0x0000119c       0x1e c:/program files/microchip/xc32/v4.20/bin/bin/../../lib/gcc/pic32c/8.3.1/thumb/v7e-m+fp/hard\libgcc.a(_aeabi_uldivmod.o)
 .ARM.attributes
                0x000011ba       0x34 c:/program files/microchip/xc32/v4.20/bin/bin/../../lib/gcc/pic32c/8.3.1/thumb/v7e-m+fp/hard\libgcc.a(_udivmoddi4.o)
 .ARM.attributes
                0x000011ee       0x1e c:/program files/microchip/xc32/v4.20/bin/bin/../../lib/gcc/pic32c/8.3.1/thumb/v7e-m+fp/hard\libgcc.a(_dvmd_tls.o)
 .ARM.attributes
                0x0000120c       0x1e c:/program files/microchip/xc32/v4.20/bin/bin/../../lib/gcc/pic32c/8.3.1/thumb/v7e-m+fp/hard/crtn.o

.comment        0x00000000       0x2b
 .comment       0x00000000       0x2b c:/program files/microchip/xc32/v4.20/bin/bin/../../lib/gcc/pic32c/8.3.1/thumb/v7e-m+fp/hard/crtbegin.o
                                 0x2c (size before relaxing)
 .comment       0x0000002b       0x2c build/mcp9808/production/_ext/1998409442/bsp.o
 .comment       0x0000002b       0x2c build/mcp9808/production/_ext/1243884746/drv_mcp9808.o
 .comment       0x0000002b       0x2c build/mcp9808/production/_ext/136144951/drv_i2c.o
 .comment       0x0000002b       0x2c build/mcp9808/production/_ext/1820763632/osal_freertos.o
 .comment       0x0000002b       0x2c build/mcp9808/production/_ext/1885943492/plib_clock.o
 .comment       0x0000002b       0x2c build/mcp9808/production/_ext/1883794006/plib_evsys.o
 .comment       0x0000002b       0x2c build/mcp9808/production/_ext/1324973556/plib_nvic.o
 .comment       0x0000002b       0x2c build/mcp9808/production/_ext/1541565758/plib_nvmctrl.o
 .comment       0x0000002b       0x2c build/mcp9808/production/_ext/1325026707/plib_port.o
 .comment       0x0000002b       0x2c build/mcp9808/production/_ext/1646999677/plib_sercom6_i2c_master.o
 .comment       0x0000002b       0x2c build/mcp9808/production/_ext/1027107927/plib_sercom1_usart.o
 .comment       0x0000002b       0x2c build/mcp9808/production/_ext/605370968/xc32_monitor.o
 .comment       0x0000002b       0x2c build/mcp9808/production/_ext/1427623807/sys_command.o
 .comment       0x0000002b       0x2c build/mcp9808/production/_ext/1884335987/sys_console.o
 .comment       0x0000002b       0x2c build/mcp9808/production/_ext/1884335987/sys_console_uart.o
 .comment       0x0000002b       0x2c build/mcp9808/production/_ext/1587138469/sys_int.o
 .comment       0x0000002b       0x2c build/mcp9808/production/_ext/1581363856/sys_reset.o
 .comment       0x0000002b       0x2c build/mcp9808/production/_ext/519814254/startup_xc32.o
 .comment       0x0000002b       0x2c build/mcp9808/production/_ext/519814254/initialization.o
 .comment       0x0000002b       0x2c build/mcp9808/production/_ext/519814254/interrupts.o
 .comment       0x0000002b       0x2c build/mcp9808/production/_ext/519814254/freertos_hooks.o
 .comment       0x0000002b       0x2c build/mcp9808/production/_ext/519814254/tasks.o
 .comment       0x0000002b       0x2c build/mcp9808/production/_ext/519814254/exceptions.o
 .comment       0x0000002b       0x2c build/mcp9808/production/_ext/246609638/port.o
 .comment       0x0000002b       0x2c build/mcp9808/production/_ext/1665200909/heap_1.o
 .comment       0x0000002b       0x2c build/mcp9808/production/_ext/404212886/queue.o
 .comment       0x0000002b       0x2c build/mcp9808/production/_ext/404212886/FreeRTOS_tasks.o
 .comment       0x0000002b       0x2c build/mcp9808/production/_ext/404212886/list.o
 .comment       0x0000002b       0x2c build/mcp9808/production/_ext/1360937237/main.o
 .comment       0x0000002b       0x2c build/mcp9808/production/_ext/1360937237/app_mcp9808.o
 .comment       0x0000002b       0x2c c:/program files/microchip/xc32/v4.20/bin/bin/../../lib/gcc/pic32c/8.3.1/../../../../pic32c/lib/thumb/v7e-m+fp/hard\libpic32c.a(data_init_wrapper.o)
 .comment       0x0000002b       0x2c c:/program files/microchip/xc32/v4.20/bin/bin/../../lib/gcc/pic32c/8.3.1/../../../../pic32c/lib/thumb/v7e-m+fp/hard\libpic32c.a(data_init_0_1.o)
 .comment       0x0000002b       0x2c c:/program files/microchip/xc32/v4.20/bin/bin/../../lib/gcc/pic32c/8.3.1/../../../../pic32c/lib/thumb/v7e-m+fp/hard\libc-musl.a(__libc_start_main.o)
 .comment       0x0000002b       0x2c c:/program files/microchip/xc32/v4.20/bin/bin/../../lib/gcc/pic32c/8.3.1/../../../../pic32c/lib/thumb/v7e-m+fp/hard\libc-musl.a(libc.o)
 .comment       0x0000002b       0x2c c:/program files/microchip/xc32/v4.20/bin/bin/../../lib/gcc/pic32c/8.3.1/../../../../pic32c/lib/thumb/v7e-m+fp/hard\libc-musl.a(malloc.o)
 .comment       0x0000002b       0x2c c:/program files/microchip/xc32/v4.20/bin/bin/../../lib/gcc/pic32c/8.3.1/../../../../pic32c/lib/thumb/v7e-m+fp/hard\libc-musl.a(vsnprintf.o)
 .comment       0x0000002b       0x2c c:/program files/microchip/xc32/v4.20/bin/bin/../../lib/gcc/pic32c/8.3.1/../../../../pic32c/lib/thumb/v7e-m+fp/hard\libc-musl.a(puts.o)
 .comment       0x0000002b       0x2c c:/program files/microchip/xc32/v4.20/bin/bin/../../lib/gcc/pic32c/8.3.1/../../../../pic32c/lib/thumb/v7e-m+fp/hard\libc-musl.a(sprintf.o)
 .comment       0x0000002b       0x2c c:/program files/microchip/xc32/v4.20/bin/bin/../../lib/gcc/pic32c/8.3.1/../../../../pic32c/lib/thumb/v7e-m+fp/hard\libc-musl.a(vsprintf.o)
 .comment       0x0000002b       0x2c c:/program files/microchip/xc32/v4.20/bin/bin/../../lib/gcc/pic32c/8.3.1/../../../../pic32c/lib/thumb/v7e-m+fp/hard\libc-musl.a(memcpy.o)
 .comment       0x0000002b       0x2c c:/program files/microchip/xc32/v4.20/bin/bin/../../lib/gcc/pic32c/8.3.1/../../../../pic32c/lib/thumb/v7e-m+fp/hard\libc-musl.a(memset.o)
 .comment       0x0000002b       0x2c c:/program files/microchip/xc32/v4.20/bin/bin/../../lib/gcc/pic32c/8.3.1/../../../../pic32c/lib/thumb/v7e-m+fp/hard\libc-musl.a(strlen.o)
 .comment       0x0000002b       0x2c c:/program files/microchip/xc32/v4.20/bin/bin/../../lib/gcc/pic32c/8.3.1/../../../../pic32c/lib/thumb/v7e-m+fp/hard\libc-musl.a(strchr.o)
 .comment       0x0000002b       0x2c c:/program files/microchip/xc32/v4.20/bin/bin/../../lib/gcc/pic32c/8.3.1/../../../../pic32c/lib/thumb/v7e-m+fp/hard\libc-musl.a(strchrnul.o)
 .comment       0x0000002b       0x2c c:/program files/microchip/xc32/v4.20/bin/bin/../../lib/gcc/pic32c/8.3.1/../../../../pic32c/lib/thumb/v7e-m+fp/hard\libc-musl.a(strcmp.o)
 .comment       0x0000002b       0x2c c:/program files/microchip/xc32/v4.20/bin/bin/../../lib/gcc/pic32c/8.3.1/../../../../pic32c/lib/thumb/v7e-m+fp/hard\libc-musl.a(strcpy.o)
 .comment       0x0000002b       0x2c c:/program files/microchip/xc32/v4.20/bin/bin/../../lib/gcc/pic32c/8.3.1/../../../../pic32c/lib/thumb/v7e-m+fp/hard\libc-musl.a(strncmp.o)
 .comment       0x0000002b       0x2c c:/program files/microchip/xc32/v4.20/bin/bin/../../lib/gcc/pic32c/8.3.1/../../../../pic32c/lib/thumb/v7e-m+fp/hard\libc-musl.a(strncpy.o)
 .comment       0x0000002b       0x2c c:/program files/microchip/xc32/v4.20/bin/bin/../../lib/gcc/pic32c/8.3.1/../../../../pic32c/lib/thumb/v7e-m+fp/hard\libc-musl.a(strtok.o)
 .comment       0x0000002b       0x2c c:/program files/microchip/xc32/v4.20/bin/bin/../../lib/gcc/pic32c/8.3.1/../../../../pic32c/lib/thumb/v7e-m+fp/hard\libc-musl.a(__environ.o)
 .comment       0x0000002b       0x2c c:/program files/microchip/xc32/v4.20/bin/bin/../../lib/gcc/pic32c/8.3.1/../../../../pic32c/lib/thumb/v7e-m+fp/hard\libc-musl.a(__errno_location.o)
 .comment       0x0000002b       0x2c c:/program files/microchip/xc32/v4.20/bin/bin/../../lib/gcc/pic32c/8.3.1/../../../../pic32c/lib/thumb/v7e-m+fp/hard\libc-musl.a(fputs.o)
 .comment       0x0000002b       0x2c c:/program files/microchip/xc32/v4.20/bin/bin/../../lib/gcc/pic32c/8.3.1/../../../../pic32c/lib/thumb/v7e-m+fp/hard\libc-musl.a(fwrite.o)
 .comment       0x0000002b       0x2c c:/program files/microchip/xc32/v4.20/bin/bin/../../lib/gcc/pic32c/8.3.1/../../../../pic32c/lib/thumb/v7e-m+fp/hard\libc-musl.a(putc.o)
 .comment       0x0000002b       0x2c c:/program files/microchip/xc32/v4.20/bin/bin/../../lib/gcc/pic32c/8.3.1/../../../../pic32c/lib/thumb/v7e-m+fp/hard\libc-musl.a(stdout.o)
 .comment       0x0000002b       0x2c c:/program files/microchip/xc32/v4.20/bin/bin/../../lib/gcc/pic32c/8.3.1/../../../../pic32c/lib/thumb/v7e-m+fp/hard\libc-musl.a(vfprintf.o)
 .comment       0x0000002b       0x2c c:/program files/microchip/xc32/v4.20/bin/bin/../../lib/gcc/pic32c/8.3.1/../../../../pic32c/lib/thumb/v7e-m+fp/hard\libc-musl.a(stpcpy.o)
 .comment       0x0000002b       0x2c c:/program files/microchip/xc32/v4.20/bin/bin/../../lib/gcc/pic32c/8.3.1/../../../../pic32c/lib/thumb/v7e-m+fp/hard\libc-musl.a(stpncpy.o)
 .comment       0x0000002b       0x2c c:/program files/microchip/xc32/v4.20/bin/bin/../../lib/gcc/pic32c/8.3.1/../../../../pic32c/lib/thumb/v7e-m+fp/hard\libc-musl.a(strcspn.o)
 .comment       0x0000002b       0x2c c:/program files/microchip/xc32/v4.20/bin/bin/../../lib/gcc/pic32c/8.3.1/../../../../pic32c/lib/thumb/v7e-m+fp/hard\libc-musl.a(strspn.o)
 .comment       0x0000002b       0x2c c:/program files/microchip/xc32/v4.20/bin/bin/../../lib/gcc/pic32c/8.3.1/../../../../pic32c/lib/thumb/v7e-m+fp/hard\libc-musl.a(__out.o)
 .comment       0x0000002b       0x2c c:/program files/microchip/xc32/v4.20/bin/bin/../../lib/gcc/pic32c/8.3.1/../../../../pic32c/lib/thumb/v7e-m+fp/hard\libc-musl.a(__pop_float.o)
 .comment       0x0000002b       0x2c c:/program files/microchip/xc32/v4.20/bin/bin/../../lib/gcc/pic32c/8.3.1/../../../../pic32c/lib/thumb/v7e-m+fp/hard\libc-musl.a(__pop_int.o)
 .comment       0x0000002b       0x2c c:/program files/microchip/xc32/v4.20/bin/bin/../../lib/gcc/pic32c/8.3.1/../../../../pic32c/lib/thumb/v7e-m+fp/hard\libc-musl.a(__pop_ptr.o)
 .comment       0x0000002b       0x2c c:/program files/microchip/xc32/v4.20/bin/bin/../../lib/gcc/pic32c/8.3.1/../../../../pic32c/lib/thumb/v7e-m+fp/hard\libc-musl.a(__printf_core.o)
 .comment       0x0000002b       0x2c c:/program files/microchip/xc32/v4.20/bin/bin/../../lib/gcc/pic32c/8.3.1/../../../../pic32c/lib/thumb/v7e-m+fp/hard\libc-musl.a(atoi.o)
 .comment       0x0000002b       0x2c c:/program files/microchip/xc32/v4.20/bin/bin/../../lib/gcc/pic32c/8.3.1/../../../../pic32c/lib/thumb/v7e-m+fp/hard\libc-musl.a(tolower.o)
 .comment       0x0000002b       0x2c c:/program files/microchip/xc32/v4.20/bin/bin/../../lib/gcc/pic32c/8.3.1/../../../../pic32c/lib/thumb/v7e-m+fp/hard\libc-musl.a(__fmt_a.o)
 .comment       0x0000002b       0x2c c:/program files/microchip/xc32/v4.20/bin/bin/../../lib/gcc/pic32c/8.3.1/../../../../pic32c/lib/thumb/v7e-m+fp/hard\libc-musl.a(__fmt_d.o)
 .comment       0x0000002b       0x2c c:/program files/microchip/xc32/v4.20/bin/bin/../../lib/gcc/pic32c/8.3.1/../../../../pic32c/lib/thumb/v7e-m+fp/hard\libc-musl.a(__fmt_fp.o)
 .comment       0x0000002b       0x2c c:/program files/microchip/xc32/v4.20/bin/bin/../../lib/gcc/pic32c/8.3.1/../../../../pic32c/lib/thumb/v7e-m+fp/hard\libc-musl.a(__fmt_o.o)
 .comment       0x0000002b       0x2c c:/program files/microchip/xc32/v4.20/bin/bin/../../lib/gcc/pic32c/8.3.1/../../../../pic32c/lib/thumb/v7e-m+fp/hard\libc-musl.a(__fmt_s.o)
 .comment       0x0000002b       0x2c c:/program files/microchip/xc32/v4.20/bin/bin/../../lib/gcc/pic32c/8.3.1/../../../../pic32c/lib/thumb/v7e-m+fp/hard\libc-musl.a(__fmt_u.o)
 .comment       0x0000002b       0x2c c:/program files/microchip/xc32/v4.20/bin/bin/../../lib/gcc/pic32c/8.3.1/../../../../pic32c/lib/thumb/v7e-m+fp/hard\libc-musl.a(__fmt_x.o)
 .comment       0x0000002b       0x2c c:/program files/microchip/xc32/v4.20/bin/bin/../../lib/gcc/pic32c/8.3.1/../../../../pic32c/lib/thumb/v7e-m+fp/hard\libc-musl.a(__init_stdio.o)
 .comment       0x0000002b       0x2c c:/program files/microchip/xc32/v4.20/bin/bin/../../lib/gcc/pic32c/8.3.1/../../../../pic32c/lib/thumb/v7e-m+fp/hard\libc-musl.a(toupper.o)
 .comment       0x0000002b       0x2c c:/program files/microchip/xc32/v4.20/bin/bin/../../lib/gcc/pic32c/8.3.1/../../../../pic32c/lib/thumb/v7e-m+fp/hard\libm-emfloat.a(fma.o)
 .comment       0x0000002b       0x2c c:/program files/microchip/xc32/v4.20/bin/bin/../../lib/gcc/pic32c/8.3.1/../../../../pic32c/lib/thumb/v7e-m+fp/hard\libm-emfloat.a(floor.o)
 .comment       0x0000002b       0x2c c:/program files/microchip/xc32/v4.20/bin/bin/../../lib/gcc/pic32c/8.3.1/thumb/v7e-m+fp/hard\libgcc.a(_udivmoddi4.o)

.debug_info     0x00000000    0x2f18e
 .debug_info    0x00000000      0x535 build/mcp9808/production/_ext/1998409442/bsp.o
 .debug_info    0x00000535     0x1827 build/mcp9808/production/_ext/1243884746/drv_mcp9808.o
 .debug_info    0x00001d5c     0x314a build/mcp9808/production/_ext/136144951/drv_i2c.o
 .debug_info    0x00004ea6      0xb97 build/mcp9808/production/_ext/1820763632/osal_freertos.o
 .debug_info    0x00005a3d      0xb57 build/mcp9808/production/_ext/1885943492/plib_clock.o
 .debug_info    0x00006594      0x313 build/mcp9808/production/_ext/1883794006/plib_evsys.o
 .debug_info    0x000068a7     0x1694 build/mcp9808/production/_ext/1324973556/plib_nvic.o
 .debug_info    0x00007f3b      0xe52 build/mcp9808/production/_ext/1541565758/plib_nvmctrl.o
 .debug_info    0x00008d8d     0x10bb build/mcp9808/production/_ext/1325026707/plib_port.o
 .debug_info    0x00009e48     0x188e build/mcp9808/production/_ext/1646999677/plib_sercom6_i2c_master.o
 .debug_info    0x0000b6d6     0x20ef build/mcp9808/production/_ext/1027107927/plib_sercom1_usart.o
 .debug_info    0x0000d7c5      0x31d build/mcp9808/production/_ext/605370968/xc32_monitor.o
 .debug_info    0x0000dae2     0x26b6 build/mcp9808/production/_ext/1427623807/sys_command.o
 .debug_info    0x00010198     0x140d build/mcp9808/production/_ext/1884335987/sys_console.o
 .debug_info    0x000115a5     0x13f6 build/mcp9808/production/_ext/1884335987/sys_console_uart.o
 .debug_info    0x0001299b     0x11a5 build/mcp9808/production/_ext/1587138469/sys_int.o
 .debug_info    0x00013b40      0x5a1 build/mcp9808/production/_ext/1581363856/sys_reset.o
 .debug_info    0x000140e1      0x88e build/mcp9808/production/_ext/519814254/startup_xc32.o
 .debug_info    0x0001496f     0x29f3 build/mcp9808/production/_ext/519814254/initialization.o
 .debug_info    0x00017362     0x16d4 build/mcp9808/production/_ext/519814254/interrupts.o
 .debug_info    0x00018a36      0x525 build/mcp9808/production/_ext/519814254/freertos_hooks.o
 .debug_info    0x00018f5b      0x51a build/mcp9808/production/_ext/519814254/tasks.o
 .debug_info    0x00019475      0x3d5 build/mcp9808/production/_ext/519814254/exceptions.o
 .debug_info    0x0001984a      0x780 build/mcp9808/production/_ext/246609638/port.o
 .debug_info    0x00019fca      0x4e0 build/mcp9808/production/_ext/1665200909/heap_1.o
 .debug_info    0x0001a4aa     0x21e7 build/mcp9808/production/_ext/404212886/queue.o
 .debug_info    0x0001c691     0x316d build/mcp9808/production/_ext/404212886/FreeRTOS_tasks.o
 .debug_info    0x0001f7fe      0x62d build/mcp9808/production/_ext/404212886/list.o
 .debug_info    0x0001fe2b      0x32c build/mcp9808/production/_ext/1360937237/main.o
 .debug_info    0x00020157      0xe28 build/mcp9808/production/_ext/1360937237/app_mcp9808.o
 .debug_info    0x00020f7f      0x29e c:/program files/microchip/xc32/v4.20/bin/bin/../../lib/gcc/pic32c/8.3.1/../../../../pic32c/lib/thumb/v7e-m+fp/hard\libpic32c.a(data_init_wrapper.o)
 .debug_info    0x0002121d      0x2a1 c:/program files/microchip/xc32/v4.20/bin/bin/../../lib/gcc/pic32c/8.3.1/../../../../pic32c/lib/thumb/v7e-m+fp/hard\libpic32c.a(data_init_0_1.o)
 .debug_info    0x000214be      0x61f c:/program files/microchip/xc32/v4.20/bin/bin/../../lib/gcc/pic32c/8.3.1/../../../../pic32c/lib/thumb/v7e-m+fp/hard\libc-musl.a(__libc_start_main.o)
 .debug_info    0x00021add      0x531 c:/program files/microchip/xc32/v4.20/bin/bin/../../lib/gcc/pic32c/8.3.1/../../../../pic32c/lib/thumb/v7e-m+fp/hard\libc-musl.a(libc.o)
 .debug_info    0x0002200e     0x13a1 c:/program files/microchip/xc32/v4.20/bin/bin/../../lib/gcc/pic32c/8.3.1/../../../../pic32c/lib/thumb/v7e-m+fp/hard\libc-musl.a(malloc.o)
 .debug_info    0x000233af      0x6fd c:/program files/microchip/xc32/v4.20/bin/bin/../../lib/gcc/pic32c/8.3.1/../../../../pic32c/lib/thumb/v7e-m+fp/hard\libc-musl.a(vsnprintf.o)
 .debug_info    0x00023aac      0x643 c:/program files/microchip/xc32/v4.20/bin/bin/../../lib/gcc/pic32c/8.3.1/../../../../pic32c/lib/thumb/v7e-m+fp/hard\libc-musl.a(puts.o)
 .debug_info    0x000240ef      0x319 c:/program files/microchip/xc32/v4.20/bin/bin/../../lib/gcc/pic32c/8.3.1/../../../../pic32c/lib/thumb/v7e-m+fp/hard\libc-musl.a(sprintf.o)
 .debug_info    0x00024408      0x313 c:/program files/microchip/xc32/v4.20/bin/bin/../../lib/gcc/pic32c/8.3.1/../../../../pic32c/lib/thumb/v7e-m+fp/hard\libc-musl.a(vsprintf.o)
 .debug_info    0x0002471b      0x2ed c:/program files/microchip/xc32/v4.20/bin/bin/../../lib/gcc/pic32c/8.3.1/../../../../pic32c/lib/thumb/v7e-m+fp/hard\libc-musl.a(memcpy.o)
 .debug_info    0x00024a08      0x2b1 c:/program files/microchip/xc32/v4.20/bin/bin/../../lib/gcc/pic32c/8.3.1/../../../../pic32c/lib/thumb/v7e-m+fp/hard\libc-musl.a(memset.o)
 .debug_info    0x00024cb9      0x2a2 c:/program files/microchip/xc32/v4.20/bin/bin/../../lib/gcc/pic32c/8.3.1/../../../../pic32c/lib/thumb/v7e-m+fp/hard\libc-musl.a(strlen.o)
 .debug_info    0x00024f5b      0x2c4 c:/program files/microchip/xc32/v4.20/bin/bin/../../lib/gcc/pic32c/8.3.1/../../../../pic32c/lib/thumb/v7e-m+fp/hard\libc-musl.a(strchr.o)
 .debug_info    0x0002521f      0x38c c:/program files/microchip/xc32/v4.20/bin/bin/../../lib/gcc/pic32c/8.3.1/../../../../pic32c/lib/thumb/v7e-m+fp/hard\libc-musl.a(strchrnul.o)
 .debug_info    0x000255ab      0x287 c:/program files/microchip/xc32/v4.20/bin/bin/../../lib/gcc/pic32c/8.3.1/../../../../pic32c/lib/thumb/v7e-m+fp/hard\libc-musl.a(strcmp.o)
 .debug_info    0x00025832      0x2b0 c:/program files/microchip/xc32/v4.20/bin/bin/../../lib/gcc/pic32c/8.3.1/../../../../pic32c/lib/thumb/v7e-m+fp/hard\libc-musl.a(strcpy.o)
 .debug_info    0x00025ae2      0x2ec c:/program files/microchip/xc32/v4.20/bin/bin/../../lib/gcc/pic32c/8.3.1/../../../../pic32c/lib/thumb/v7e-m+fp/hard\libc-musl.a(strncmp.o)
 .debug_info    0x00025dce      0x2d5 c:/program files/microchip/xc32/v4.20/bin/bin/../../lib/gcc/pic32c/8.3.1/../../../../pic32c/lib/thumb/v7e-m+fp/hard\libc-musl.a(strncpy.o)
 .debug_info    0x000260a3      0x2f2 c:/program files/microchip/xc32/v4.20/bin/bin/../../lib/gcc/pic32c/8.3.1/../../../../pic32c/lib/thumb/v7e-m+fp/hard\libc-musl.a(strtok.o)
 .debug_info    0x00026395      0x2ab c:/program files/microchip/xc32/v4.20/bin/bin/../../lib/gcc/pic32c/8.3.1/../../../../pic32c/lib/thumb/v7e-m+fp/hard\libc-musl.a(__environ.o)
 .debug_info    0x00026640      0x26f c:/program files/microchip/xc32/v4.20/bin/bin/../../lib/gcc/pic32c/8.3.1/../../../../pic32c/lib/thumb/v7e-m+fp/hard\libc-musl.a(__errno_location.o)
 .debug_info    0x000268af      0x653 c:/program files/microchip/xc32/v4.20/bin/bin/../../lib/gcc/pic32c/8.3.1/../../../../pic32c/lib/thumb/v7e-m+fp/hard\libc-musl.a(fputs.o)
 .debug_info    0x00026f02      0x4cf c:/program files/microchip/xc32/v4.20/bin/bin/../../lib/gcc/pic32c/8.3.1/../../../../pic32c/lib/thumb/v7e-m+fp/hard\libc-musl.a(fwrite.o)
 .debug_info    0x000273d1      0x4a3 c:/program files/microchip/xc32/v4.20/bin/bin/../../lib/gcc/pic32c/8.3.1/../../../../pic32c/lib/thumb/v7e-m+fp/hard\libc-musl.a(putc.o)
 .debug_info    0x00027874      0x47f c:/program files/microchip/xc32/v4.20/bin/bin/../../lib/gcc/pic32c/8.3.1/../../../../pic32c/lib/thumb/v7e-m+fp/hard\libc-musl.a(stdout.o)
 .debug_info    0x00027cf3      0x6be c:/program files/microchip/xc32/v4.20/bin/bin/../../lib/gcc/pic32c/8.3.1/../../../../pic32c/lib/thumb/v7e-m+fp/hard\libc-musl.a(vfprintf.o)
 .debug_info    0x000283b1      0x2b4 c:/program files/microchip/xc32/v4.20/bin/bin/../../lib/gcc/pic32c/8.3.1/../../../../pic32c/lib/thumb/v7e-m+fp/hard\libc-musl.a(stpcpy.o)
 .debug_info    0x00028665      0x2f0 c:/program files/microchip/xc32/v4.20/bin/bin/../../lib/gcc/pic32c/8.3.1/../../../../pic32c/lib/thumb/v7e-m+fp/hard\libc-musl.a(stpncpy.o)
 .debug_info    0x00028955      0x317 c:/program files/microchip/xc32/v4.20/bin/bin/../../lib/gcc/pic32c/8.3.1/../../../../pic32c/lib/thumb/v7e-m+fp/hard\libc-musl.a(strcspn.o)
 .debug_info    0x00028c6c      0x2fc c:/program files/microchip/xc32/v4.20/bin/bin/../../lib/gcc/pic32c/8.3.1/../../../../pic32c/lib/thumb/v7e-m+fp/hard\libc-musl.a(strspn.o)
 .debug_info    0x00028f68      0x534 c:/program files/microchip/xc32/v4.20/bin/bin/../../lib/gcc/pic32c/8.3.1/../../../../pic32c/lib/thumb/v7e-m+fp/hard\libc-musl.a(__out.o)
 .debug_info    0x0002949c      0x3d9 c:/program files/microchip/xc32/v4.20/bin/bin/../../lib/gcc/pic32c/8.3.1/../../../../pic32c/lib/thumb/v7e-m+fp/hard\libc-musl.a(__pop_float.o)
 .debug_info    0x00029875      0x3fd c:/program files/microchip/xc32/v4.20/bin/bin/../../lib/gcc/pic32c/8.3.1/../../../../pic32c/lib/thumb/v7e-m+fp/hard\libc-musl.a(__pop_int.o)
 .debug_info    0x00029c72      0x403 c:/program files/microchip/xc32/v4.20/bin/bin/../../lib/gcc/pic32c/8.3.1/../../../../pic32c/lib/thumb/v7e-m+fp/hard\libc-musl.a(__pop_ptr.o)
 .debug_info    0x0002a075      0xd2f c:/program files/microchip/xc32/v4.20/bin/bin/../../lib/gcc/pic32c/8.3.1/../../../../pic32c/lib/thumb/v7e-m+fp/hard\libc-musl.a(__printf_core.o)
 .debug_info    0x0002ada4      0x2f7 c:/program files/microchip/xc32/v4.20/bin/bin/../../lib/gcc/pic32c/8.3.1/../../../../pic32c/lib/thumb/v7e-m+fp/hard\libc-musl.a(atoi.o)
 .debug_info    0x0002b09b      0x34f c:/program files/microchip/xc32/v4.20/bin/bin/../../lib/gcc/pic32c/8.3.1/../../../../pic32c/lib/thumb/v7e-m+fp/hard\libc-musl.a(tolower.o)
 .debug_info    0x0002b3ea      0x903 c:/program files/microchip/xc32/v4.20/bin/bin/../../lib/gcc/pic32c/8.3.1/../../../../pic32c/lib/thumb/v7e-m+fp/hard\libc-musl.a(__fmt_a.o)
 .debug_info    0x0002bced      0x5be c:/program files/microchip/xc32/v4.20/bin/bin/../../lib/gcc/pic32c/8.3.1/../../../../pic32c/lib/thumb/v7e-m+fp/hard\libc-musl.a(__fmt_d.o)
 .debug_info    0x0002c2ab      0x947 c:/program files/microchip/xc32/v4.20/bin/bin/../../lib/gcc/pic32c/8.3.1/../../../../pic32c/lib/thumb/v7e-m+fp/hard\libc-musl.a(__fmt_fp.o)
 .debug_info    0x0002cbf2      0x58f c:/program files/microchip/xc32/v4.20/bin/bin/../../lib/gcc/pic32c/8.3.1/../../../../pic32c/lib/thumb/v7e-m+fp/hard\libc-musl.a(__fmt_o.o)
 .debug_info    0x0002d181      0x533 c:/program files/microchip/xc32/v4.20/bin/bin/../../lib/gcc/pic32c/8.3.1/../../../../pic32c/lib/thumb/v7e-m+fp/hard\libc-musl.a(__fmt_s.o)
 .debug_info    0x0002d6b4      0x65c c:/program files/microchip/xc32/v4.20/bin/bin/../../lib/gcc/pic32c/8.3.1/../../../../pic32c/lib/thumb/v7e-m+fp/hard\libc-musl.a(__fmt_u.o)
 .debug_info    0x0002dd10      0x5fd c:/program files/microchip/xc32/v4.20/bin/bin/../../lib/gcc/pic32c/8.3.1/../../../../pic32c/lib/thumb/v7e-m+fp/hard\libc-musl.a(__fmt_x.o)
 .debug_info    0x0002e30d      0x328 c:/program files/microchip/xc32/v4.20/bin/bin/../../lib/gcc/pic32c/8.3.1/../../../../pic32c/lib/thumb/v7e-m+fp/hard\libc-musl.a(__init_stdio.o)
 .debug_info    0x0002e635      0x34f c:/program files/microchip/xc32/v4.20/bin/bin/../../lib/gcc/pic32c/8.3.1/../../../../pic32c/lib/thumb/v7e-m+fp/hard\libc-musl.a(toupper.o)
 .debug_info    0x0002e984       0x26 c:/program files/microchip/xc32/v4.20/bin/bin/../../lib/gcc/pic32c/8.3.1/thumb/v7e-m+fp/hard\libgcc.a(_aeabi_uldivmod.o)
 .debug_info    0x0002e9aa      0x7be c:/program files/microchip/xc32/v4.20/bin/bin/../../lib/gcc/pic32c/8.3.1/thumb/v7e-m+fp/hard\libgcc.a(_udivmoddi4.o)
 .debug_info    0x0002f168       0x26 c:/program files/microchip/xc32/v4.20/bin/bin/../../lib/gcc/pic32c/8.3.1/thumb/v7e-m+fp/hard\libgcc.a(_dvmd_tls.o)

.debug_abbrev   0x00000000     0x6d8b
 .debug_abbrev  0x00000000       0xa8 build/mcp9808/production/_ext/1998409442/bsp.o
 .debug_abbrev  0x000000a8      0x366 build/mcp9808/production/_ext/1243884746/drv_mcp9808.o
 .debug_abbrev  0x0000040e      0x4d5 build/mcp9808/production/_ext/136144951/drv_i2c.o
 .debug_abbrev  0x000008e3      0x1ea build/mcp9808/production/_ext/1820763632/osal_freertos.o
 .debug_abbrev  0x00000acd      0x122 build/mcp9808/production/_ext/1885943492/plib_clock.o
 .debug_abbrev  0x00000bef       0x3b build/mcp9808/production/_ext/1883794006/plib_evsys.o
 .debug_abbrev  0x00000c2a      0x1f3 build/mcp9808/production/_ext/1324973556/plib_nvic.o
 .debug_abbrev  0x00000e1d      0x245 build/mcp9808/production/_ext/1541565758/plib_nvmctrl.o
 .debug_abbrev  0x00001062      0x1d6 build/mcp9808/production/_ext/1325026707/plib_port.o
 .debug_abbrev  0x00001238      0x3da build/mcp9808/production/_ext/1646999677/plib_sercom6_i2c_master.o
 .debug_abbrev  0x00001612      0x476 build/mcp9808/production/_ext/1027107927/plib_sercom1_usart.o
 .debug_abbrev  0x00001a88       0x96 build/mcp9808/production/_ext/605370968/xc32_monitor.o
 .debug_abbrev  0x00001b1e      0x491 build/mcp9808/production/_ext/1427623807/sys_command.o
 .debug_abbrev  0x00001faf      0x38e build/mcp9808/production/_ext/1884335987/sys_console.o
 .debug_abbrev  0x0000233d      0x347 build/mcp9808/production/_ext/1884335987/sys_console_uart.o
 .debug_abbrev  0x00002684      0x240 build/mcp9808/production/_ext/1587138469/sys_int.o
 .debug_abbrev  0x000028c4       0xef build/mcp9808/production/_ext/1581363856/sys_reset.o
 .debug_abbrev  0x000029b3      0x1db build/mcp9808/production/_ext/519814254/startup_xc32.o
 .debug_abbrev  0x00002b8e      0x256 build/mcp9808/production/_ext/519814254/initialization.o
 .debug_abbrev  0x00002de4       0xb5 build/mcp9808/production/_ext/519814254/interrupts.o
 .debug_abbrev  0x00002e99      0x14e build/mcp9808/production/_ext/519814254/freertos_hooks.o
 .debug_abbrev  0x00002fe7      0x102 build/mcp9808/production/_ext/519814254/tasks.o
 .debug_abbrev  0x000030e9       0x3e build/mcp9808/production/_ext/519814254/exceptions.o
 .debug_abbrev  0x00003127      0x226 build/mcp9808/production/_ext/246609638/port.o
 .debug_abbrev  0x0000334d      0x14e build/mcp9808/production/_ext/1665200909/heap_1.o
 .debug_abbrev  0x0000349b      0x367 build/mcp9808/production/_ext/404212886/queue.o
 .debug_abbrev  0x00003802      0x46f build/mcp9808/production/_ext/404212886/FreeRTOS_tasks.o
 .debug_abbrev  0x00003c71      0x15e build/mcp9808/production/_ext/404212886/list.o
 .debug_abbrev  0x00003dcf       0x77 build/mcp9808/production/_ext/1360937237/main.o
 .debug_abbrev  0x00003e46      0x210 build/mcp9808/production/_ext/1360937237/app_mcp9808.o
 .debug_abbrev  0x00004056       0x2b c:/program files/microchip/xc32/v4.20/bin/bin/../../lib/gcc/pic32c/8.3.1/../../../../pic32c/lib/thumb/v7e-m+fp/hard\libpic32c.a(data_init_wrapper.o)
 .debug_abbrev  0x00004081       0x2e c:/program files/microchip/xc32/v4.20/bin/bin/../../lib/gcc/pic32c/8.3.1/../../../../pic32c/lib/thumb/v7e-m+fp/hard\libpic32c.a(data_init_0_1.o)
 .debug_abbrev  0x000040af      0x117 c:/program files/microchip/xc32/v4.20/bin/bin/../../lib/gcc/pic32c/8.3.1/../../../../pic32c/lib/thumb/v7e-m+fp/hard\libc-musl.a(__libc_start_main.o)
 .debug_abbrev  0x000041c6       0xb8 c:/program files/microchip/xc32/v4.20/bin/bin/../../lib/gcc/pic32c/8.3.1/../../../../pic32c/lib/thumb/v7e-m+fp/hard\libc-musl.a(libc.o)
 .debug_abbrev  0x0000427e      0x413 c:/program files/microchip/xc32/v4.20/bin/bin/../../lib/gcc/pic32c/8.3.1/../../../../pic32c/lib/thumb/v7e-m+fp/hard\libc-musl.a(malloc.o)
 .debug_abbrev  0x00004691      0x168 c:/program files/microchip/xc32/v4.20/bin/bin/../../lib/gcc/pic32c/8.3.1/../../../../pic32c/lib/thumb/v7e-m+fp/hard\libc-musl.a(vsnprintf.o)
 .debug_abbrev  0x000047f9      0x151 c:/program files/microchip/xc32/v4.20/bin/bin/../../lib/gcc/pic32c/8.3.1/../../../../pic32c/lib/thumb/v7e-m+fp/hard\libc-musl.a(puts.o)
 .debug_abbrev  0x0000494a       0xfb c:/program files/microchip/xc32/v4.20/bin/bin/../../lib/gcc/pic32c/8.3.1/../../../../pic32c/lib/thumb/v7e-m+fp/hard\libc-musl.a(sprintf.o)
 .debug_abbrev  0x00004a45       0xc3 c:/program files/microchip/xc32/v4.20/bin/bin/../../lib/gcc/pic32c/8.3.1/../../../../pic32c/lib/thumb/v7e-m+fp/hard\libc-musl.a(vsprintf.o)
 .debug_abbrev  0x00004b08       0x9c c:/program files/microchip/xc32/v4.20/bin/bin/../../lib/gcc/pic32c/8.3.1/../../../../pic32c/lib/thumb/v7e-m+fp/hard\libc-musl.a(memcpy.o)
 .debug_abbrev  0x00004ba4       0x97 c:/program files/microchip/xc32/v4.20/bin/bin/../../lib/gcc/pic32c/8.3.1/../../../../pic32c/lib/thumb/v7e-m+fp/hard\libc-musl.a(memset.o)
 .debug_abbrev  0x00004c3b       0x86 c:/program files/microchip/xc32/v4.20/bin/bin/../../lib/gcc/pic32c/8.3.1/../../../../pic32c/lib/thumb/v7e-m+fp/hard\libc-musl.a(strlen.o)
 .debug_abbrev  0x00004cc1       0xa2 c:/program files/microchip/xc32/v4.20/bin/bin/../../lib/gcc/pic32c/8.3.1/../../../../pic32c/lib/thumb/v7e-m+fp/hard\libc-musl.a(strchr.o)
 .debug_abbrev  0x00004d63       0xa5 c:/program files/microchip/xc32/v4.20/bin/bin/../../lib/gcc/pic32c/8.3.1/../../../../pic32c/lib/thumb/v7e-m+fp/hard\libc-musl.a(strchrnul.o)
 .debug_abbrev  0x00004e08       0x63 c:/program files/microchip/xc32/v4.20/bin/bin/../../lib/gcc/pic32c/8.3.1/../../../../pic32c/lib/thumb/v7e-m+fp/hard\libc-musl.a(strcmp.o)
 .debug_abbrev  0x00004e6b       0x8e c:/program files/microchip/xc32/v4.20/bin/bin/../../lib/gcc/pic32c/8.3.1/../../../../pic32c/lib/thumb/v7e-m+fp/hard\libc-musl.a(strcpy.o)
 .debug_abbrev  0x00004ef9       0x86 c:/program files/microchip/xc32/v4.20/bin/bin/../../lib/gcc/pic32c/8.3.1/../../../../pic32c/lib/thumb/v7e-m+fp/hard\libc-musl.a(strncmp.o)
 .debug_abbrev  0x00004f7f       0x9d c:/program files/microchip/xc32/v4.20/bin/bin/../../lib/gcc/pic32c/8.3.1/../../../../pic32c/lib/thumb/v7e-m+fp/hard\libc-musl.a(strncpy.o)
 .debug_abbrev  0x0000501c       0xac c:/program files/microchip/xc32/v4.20/bin/bin/../../lib/gcc/pic32c/8.3.1/../../../../pic32c/lib/thumb/v7e-m+fp/hard\libc-musl.a(strtok.o)
 .debug_abbrev  0x000050c8       0x57 c:/program files/microchip/xc32/v4.20/bin/bin/../../lib/gcc/pic32c/8.3.1/../../../../pic32c/lib/thumb/v7e-m+fp/hard\libc-musl.a(__environ.o)
 .debug_abbrev  0x0000511f       0x2e c:/program files/microchip/xc32/v4.20/bin/bin/../../lib/gcc/pic32c/8.3.1/../../../../pic32c/lib/thumb/v7e-m+fp/hard\libc-musl.a(__errno_location.o)
 .debug_abbrev  0x0000514d      0x12a c:/program files/microchip/xc32/v4.20/bin/bin/../../lib/gcc/pic32c/8.3.1/../../../../pic32c/lib/thumb/v7e-m+fp/hard\libc-musl.a(fputs.o)
 .debug_abbrev  0x00005277      0x10f c:/program files/microchip/xc32/v4.20/bin/bin/../../lib/gcc/pic32c/8.3.1/../../../../pic32c/lib/thumb/v7e-m+fp/hard\libc-musl.a(fwrite.o)
 .debug_abbrev  0x00005386      0x109 c:/program files/microchip/xc32/v4.20/bin/bin/../../lib/gcc/pic32c/8.3.1/../../../../pic32c/lib/thumb/v7e-m+fp/hard\libc-musl.a(putc.o)
 .debug_abbrev  0x0000548f      0x135 c:/program files/microchip/xc32/v4.20/bin/bin/../../lib/gcc/pic32c/8.3.1/../../../../pic32c/lib/thumb/v7e-m+fp/hard\libc-musl.a(stdout.o)
 .debug_abbrev  0x000055c4      0x16d c:/program files/microchip/xc32/v4.20/bin/bin/../../lib/gcc/pic32c/8.3.1/../../../../pic32c/lib/thumb/v7e-m+fp/hard\libc-musl.a(vfprintf.o)
 .debug_abbrev  0x00005731       0x63 c:/program files/microchip/xc32/v4.20/bin/bin/../../lib/gcc/pic32c/8.3.1/../../../../pic32c/lib/thumb/v7e-m+fp/hard\libc-musl.a(stpcpy.o)
 .debug_abbrev  0x00005794       0x86 c:/program files/microchip/xc32/v4.20/bin/bin/../../lib/gcc/pic32c/8.3.1/../../../../pic32c/lib/thumb/v7e-m+fp/hard\libc-musl.a(stpncpy.o)
 .debug_abbrev  0x0000581a       0xf5 c:/program files/microchip/xc32/v4.20/bin/bin/../../lib/gcc/pic32c/8.3.1/../../../../pic32c/lib/thumb/v7e-m+fp/hard\libc-musl.a(strcspn.o)
 .debug_abbrev  0x0000590f       0xd2 c:/program files/microchip/xc32/v4.20/bin/bin/../../lib/gcc/pic32c/8.3.1/../../../../pic32c/lib/thumb/v7e-m+fp/hard\libc-musl.a(strspn.o)
 .debug_abbrev  0x000059e1      0x170 c:/program files/microchip/xc32/v4.20/bin/bin/../../lib/gcc/pic32c/8.3.1/../../../../pic32c/lib/thumb/v7e-m+fp/hard\libc-musl.a(__out.o)
 .debug_abbrev  0x00005b51       0xbd c:/program files/microchip/xc32/v4.20/bin/bin/../../lib/gcc/pic32c/8.3.1/../../../../pic32c/lib/thumb/v7e-m+fp/hard\libc-musl.a(__pop_float.o)
 .debug_abbrev  0x00005c0e       0xbd c:/program files/microchip/xc32/v4.20/bin/bin/../../lib/gcc/pic32c/8.3.1/../../../../pic32c/lib/thumb/v7e-m+fp/hard\libc-musl.a(__pop_int.o)
 .debug_abbrev  0x00005ccb       0xce c:/program files/microchip/xc32/v4.20/bin/bin/../../lib/gcc/pic32c/8.3.1/../../../../pic32c/lib/thumb/v7e-m+fp/hard\libc-musl.a(__pop_ptr.o)
 .debug_abbrev  0x00005d99      0x2c5 c:/program files/microchip/xc32/v4.20/bin/bin/../../lib/gcc/pic32c/8.3.1/../../../../pic32c/lib/thumb/v7e-m+fp/hard\libc-musl.a(__printf_core.o)
 .debug_abbrev  0x0000605e       0xbb c:/program files/microchip/xc32/v4.20/bin/bin/../../lib/gcc/pic32c/8.3.1/../../../../pic32c/lib/thumb/v7e-m+fp/hard\libc-musl.a(atoi.o)
 .debug_abbrev  0x00006119       0xfd c:/program files/microchip/xc32/v4.20/bin/bin/../../lib/gcc/pic32c/8.3.1/../../../../pic32c/lib/thumb/v7e-m+fp/hard\libc-musl.a(tolower.o)
 .debug_abbrev  0x00006216      0x194 c:/program files/microchip/xc32/v4.20/bin/bin/../../lib/gcc/pic32c/8.3.1/../../../../pic32c/lib/thumb/v7e-m+fp/hard\libc-musl.a(__fmt_a.o)
 .debug_abbrev  0x000063aa      0x120 c:/program files/microchip/xc32/v4.20/bin/bin/../../lib/gcc/pic32c/8.3.1/../../../../pic32c/lib/thumb/v7e-m+fp/hard\libc-musl.a(__fmt_d.o)
 .debug_abbrev  0x000064ca      0x1b3 c:/program files/microchip/xc32/v4.20/bin/bin/../../lib/gcc/pic32c/8.3.1/../../../../pic32c/lib/thumb/v7e-m+fp/hard\libc-musl.a(__fmt_fp.o)
 .debug_abbrev  0x0000667d      0x120 c:/program files/microchip/xc32/v4.20/bin/bin/../../lib/gcc/pic32c/8.3.1/../../../../pic32c/lib/thumb/v7e-m+fp/hard\libc-musl.a(__fmt_o.o)
 .debug_abbrev  0x0000679d      0x10b c:/program files/microchip/xc32/v4.20/bin/bin/../../lib/gcc/pic32c/8.3.1/../../../../pic32c/lib/thumb/v7e-m+fp/hard\libc-musl.a(__fmt_s.o)
 .debug_abbrev  0x000068a8      0x163 c:/program files/microchip/xc32/v4.20/bin/bin/../../lib/gcc/pic32c/8.3.1/../../../../pic32c/lib/thumb/v7e-m+fp/hard\libc-musl.a(__fmt_u.o)
 .debug_abbrev  0x00006a0b      0x10f c:/program files/microchip/xc32/v4.20/bin/bin/../../lib/gcc/pic32c/8.3.1/../../../../pic32c/lib/thumb/v7e-m+fp/hard\libc-musl.a(__fmt_x.o)
 .debug_abbrev  0x00006b1a       0x5a c:/program files/microchip/xc32/v4.20/bin/bin/../../lib/gcc/pic32c/8.3.1/../../../../pic32c/lib/thumb/v7e-m+fp/hard\libc-musl.a(__init_stdio.o)
 .debug_abbrev  0x00006b74       0xfd c:/program files/microchip/xc32/v4.20/bin/bin/../../lib/gcc/pic32c/8.3.1/../../../../pic32c/lib/thumb/v7e-m+fp/hard\libc-musl.a(toupper.o)
 .debug_abbrev  0x00006c71       0x14 c:/program files/microchip/xc32/v4.20/bin/bin/../../lib/gcc/pic32c/8.3.1/thumb/v7e-m+fp/hard\libgcc.a(_aeabi_uldivmod.o)
 .debug_abbrev  0x00006c85       0xf2 c:/program files/microchip/xc32/v4.20/bin/bin/../../lib/gcc/pic32c/8.3.1/thumb/v7e-m+fp/hard\libgcc.a(_udivmoddi4.o)
 .debug_abbrev  0x00006d77       0x14 c:/program files/microchip/xc32/v4.20/bin/bin/../../lib/gcc/pic32c/8.3.1/thumb/v7e-m+fp/hard\libgcc.a(_dvmd_tls.o)

.debug_aranges  0x00000000     0x12d8
 .debug_aranges
                0x00000000       0x20 build/mcp9808/production/_ext/1998409442/bsp.o
 .debug_aranges
                0x00000020       0x80 build/mcp9808/production/_ext/1243884746/drv_mcp9808.o
 .debug_aranges
                0x000000a0       0xc0 build/mcp9808/production/_ext/136144951/drv_i2c.o
 .debug_aranges
                0x00000160       0x90 build/mcp9808/production/_ext/1820763632/osal_freertos.o
 .debug_aranges
                0x000001f0       0x20 build/mcp9808/production/_ext/1885943492/plib_clock.o
 .debug_aranges
                0x00000210       0x20 build/mcp9808/production/_ext/1883794006/plib_evsys.o
 .debug_aranges
                0x00000230       0x38 build/mcp9808/production/_ext/1324973556/plib_nvic.o
 .debug_aranges
                0x00000268       0xd8 build/mcp9808/production/_ext/1541565758/plib_nvmctrl.o
 .debug_aranges
                0x00000340       0x70 build/mcp9808/production/_ext/1325026707/plib_port.o
 .debug_aranges
                0x000003b0       0x70 build/mcp9808/production/_ext/1646999677/plib_sercom6_i2c_master.o
 .debug_aranges
                0x00000420       0xc0 build/mcp9808/production/_ext/1027107927/plib_sercom1_usart.o
 .debug_aranges
                0x000004e0       0x28 build/mcp9808/production/_ext/605370968/xc32_monitor.o
 .debug_aranges
                0x00000508       0xd8 build/mcp9808/production/_ext/1427623807/sys_command.o
 .debug_aranges
                0x000005e0       0x88 build/mcp9808/production/_ext/1884335987/sys_console.o
 .debug_aranges
                0x00000668       0x70 build/mcp9808/production/_ext/1884335987/sys_console_uart.o
 .debug_aranges
                0x000006d8       0x40 build/mcp9808/production/_ext/1587138469/sys_int.o
 .debug_aranges
                0x00000718       0x20 build/mcp9808/production/_ext/1581363856/sys_reset.o
 .debug_aranges
                0x00000738       0x28 build/mcp9808/production/_ext/519814254/startup_xc32.o
 .debug_aranges
                0x00000760       0x20 build/mcp9808/production/_ext/519814254/initialization.o
 .debug_aranges
                0x00000780       0x20 build/mcp9808/production/_ext/519814254/interrupts.o
 .debug_aranges
                0x000007a0       0x40 build/mcp9808/production/_ext/519814254/freertos_hooks.o
 .debug_aranges
                0x000007e0       0x30 build/mcp9808/production/_ext/519814254/tasks.o
 .debug_aranges
                0x00000810       0x48 build/mcp9808/production/_ext/519814254/exceptions.o
 .debug_aranges
                0x00000858       0x78 build/mcp9808/production/_ext/246609638/port.o
 .debug_aranges
                0x000008d0       0x38 build/mcp9808/production/_ext/1665200909/heap_1.o
 .debug_aranges
                0x00000908       0xc8 build/mcp9808/production/_ext/404212886/queue.o
 .debug_aranges
                0x000009d0      0x178 build/mcp9808/production/_ext/404212886/FreeRTOS_tasks.o
 .debug_aranges
                0x00000b48       0x40 build/mcp9808/production/_ext/404212886/list.o
 .debug_aranges
                0x00000b88       0x20 build/mcp9808/production/_ext/1360937237/main.o
 .debug_aranges
                0x00000ba8       0x48 build/mcp9808/production/_ext/1360937237/app_mcp9808.o
 .debug_aranges
                0x00000bf0       0x20 c:/program files/microchip/xc32/v4.20/bin/bin/../../lib/gcc/pic32c/8.3.1/../../../../pic32c/lib/thumb/v7e-m+fp/hard\libpic32c.a(data_init_wrapper.o)
 .debug_aranges
                0x00000c10       0x20 c:/program files/microchip/xc32/v4.20/bin/bin/../../lib/gcc/pic32c/8.3.1/../../../../pic32c/lib/thumb/v7e-m+fp/hard\libpic32c.a(data_init_0_1.o)
 .debug_aranges
                0x00000c30       0x28 c:/program files/microchip/xc32/v4.20/bin/bin/../../lib/gcc/pic32c/8.3.1/../../../../pic32c/lib/thumb/v7e-m+fp/hard\libc-musl.a(__libc_start_main.o)
 .debug_aranges
                0x00000c58       0x18 c:/program files/microchip/xc32/v4.20/bin/bin/../../lib/gcc/pic32c/8.3.1/../../../../pic32c/lib/thumb/v7e-m+fp/hard\libc-musl.a(libc.o)
 .debug_aranges
                0x00000c70       0x70 c:/program files/microchip/xc32/v4.20/bin/bin/../../lib/gcc/pic32c/8.3.1/../../../../pic32c/lib/thumb/v7e-m+fp/hard\libc-musl.a(malloc.o)
 .debug_aranges
                0x00000ce0       0x20 c:/program files/microchip/xc32/v4.20/bin/bin/../../lib/gcc/pic32c/8.3.1/../../../../pic32c/lib/thumb/v7e-m+fp/hard\libc-musl.a(vsnprintf.o)
 .debug_aranges
                0x00000d00       0x20 c:/program files/microchip/xc32/v4.20/bin/bin/../../lib/gcc/pic32c/8.3.1/../../../../pic32c/lib/thumb/v7e-m+fp/hard\libc-musl.a(puts.o)
 .debug_aranges
                0x00000d20       0x20 c:/program files/microchip/xc32/v4.20/bin/bin/../../lib/gcc/pic32c/8.3.1/../../../../pic32c/lib/thumb/v7e-m+fp/hard\libc-musl.a(sprintf.o)
 .debug_aranges
                0x00000d40       0x20 c:/program files/microchip/xc32/v4.20/bin/bin/../../lib/gcc/pic32c/8.3.1/../../../../pic32c/lib/thumb/v7e-m+fp/hard\libc-musl.a(vsprintf.o)
 .debug_aranges
                0x00000d60       0x20 c:/program files/microchip/xc32/v4.20/bin/bin/../../lib/gcc/pic32c/8.3.1/../../../../pic32c/lib/thumb/v7e-m+fp/hard\libc-musl.a(memcpy.o)
 .debug_aranges
                0x00000d80       0x20 c:/program files/microchip/xc32/v4.20/bin/bin/../../lib/gcc/pic32c/8.3.1/../../../../pic32c/lib/thumb/v7e-m+fp/hard\libc-musl.a(memset.o)
 .debug_aranges
                0x00000da0       0x20 c:/program files/microchip/xc32/v4.20/bin/bin/../../lib/gcc/pic32c/8.3.1/../../../../pic32c/lib/thumb/v7e-m+fp/hard\libc-musl.a(strlen.o)
 .debug_aranges
                0x00000dc0       0x20 c:/program files/microchip/xc32/v4.20/bin/bin/../../lib/gcc/pic32c/8.3.1/../../../../pic32c/lib/thumb/v7e-m+fp/hard\libc-musl.a(strchr.o)
 .debug_aranges
                0x00000de0       0x20 c:/program files/microchip/xc32/v4.20/bin/bin/../../lib/gcc/pic32c/8.3.1/../../../../pic32c/lib/thumb/v7e-m+fp/hard\libc-musl.a(strchrnul.o)
 .debug_aranges
                0x00000e00       0x20 c:/program files/microchip/xc32/v4.20/bin/bin/../../lib/gcc/pic32c/8.3.1/../../../../pic32c/lib/thumb/v7e-m+fp/hard\libc-musl.a(strcmp.o)
 .debug_aranges
                0x00000e20       0x20 c:/program files/microchip/xc32/v4.20/bin/bin/../../lib/gcc/pic32c/8.3.1/../../../../pic32c/lib/thumb/v7e-m+fp/hard\libc-musl.a(strcpy.o)
 .debug_aranges
                0x00000e40       0x20 c:/program files/microchip/xc32/v4.20/bin/bin/../../lib/gcc/pic32c/8.3.1/../../../../pic32c/lib/thumb/v7e-m+fp/hard\libc-musl.a(strncmp.o)
 .debug_aranges
                0x00000e60       0x20 c:/program files/microchip/xc32/v4.20/bin/bin/../../lib/gcc/pic32c/8.3.1/../../../../pic32c/lib/thumb/v7e-m+fp/hard\libc-musl.a(strncpy.o)
 .debug_aranges
                0x00000e80       0x20 c:/program files/microchip/xc32/v4.20/bin/bin/../../lib/gcc/pic32c/8.3.1/../../../../pic32c/lib/thumb/v7e-m+fp/hard\libc-musl.a(strtok.o)
 .debug_aranges
                0x00000ea0       0x18 c:/program files/microchip/xc32/v4.20/bin/bin/../../lib/gcc/pic32c/8.3.1/../../../../pic32c/lib/thumb/v7e-m+fp/hard\libc-musl.a(__environ.o)
 .debug_aranges
                0x00000eb8       0x18 c:/program files/microchip/xc32/v4.20/bin/bin/../../lib/gcc/pic32c/8.3.1/../../../../pic32c/lib/thumb/v7e-m+fp/hard\libc-musl.a(__errno_location.o)
 .debug_aranges
                0x00000ed0       0x20 c:/program files/microchip/xc32/v4.20/bin/bin/../../lib/gcc/pic32c/8.3.1/../../../../pic32c/lib/thumb/v7e-m+fp/hard\libc-musl.a(fputs.o)
 .debug_aranges
                0x00000ef0       0x28 c:/program files/microchip/xc32/v4.20/bin/bin/../../lib/gcc/pic32c/8.3.1/../../../../pic32c/lib/thumb/v7e-m+fp/hard\libc-musl.a(fwrite.o)
 .debug_aranges
                0x00000f18       0x30 c:/program files/microchip/xc32/v4.20/bin/bin/../../lib/gcc/pic32c/8.3.1/../../../../pic32c/lib/thumb/v7e-m+fp/hard\libc-musl.a(putc.o)
 .debug_aranges
                0x00000f48       0x30 c:/program files/microchip/xc32/v4.20/bin/bin/../../lib/gcc/pic32c/8.3.1/../../../../pic32c/lib/thumb/v7e-m+fp/hard\libc-musl.a(stdout.o)
 .debug_aranges
                0x00000f78       0x28 c:/program files/microchip/xc32/v4.20/bin/bin/../../lib/gcc/pic32c/8.3.1/../../../../pic32c/lib/thumb/v7e-m+fp/hard\libc-musl.a(vfprintf.o)
 .debug_aranges
                0x00000fa0       0x20 c:/program files/microchip/xc32/v4.20/bin/bin/../../lib/gcc/pic32c/8.3.1/../../../../pic32c/lib/thumb/v7e-m+fp/hard\libc-musl.a(stpcpy.o)
 .debug_aranges
                0x00000fc0       0x20 c:/program files/microchip/xc32/v4.20/bin/bin/../../lib/gcc/pic32c/8.3.1/../../../../pic32c/lib/thumb/v7e-m+fp/hard\libc-musl.a(stpncpy.o)
 .debug_aranges
                0x00000fe0       0x20 c:/program files/microchip/xc32/v4.20/bin/bin/../../lib/gcc/pic32c/8.3.1/../../../../pic32c/lib/thumb/v7e-m+fp/hard\libc-musl.a(strcspn.o)
 .debug_aranges
                0x00001000       0x20 c:/program files/microchip/xc32/v4.20/bin/bin/../../lib/gcc/pic32c/8.3.1/../../../../pic32c/lib/thumb/v7e-m+fp/hard\libc-musl.a(strspn.o)
 .debug_aranges
                0x00001020       0x28 c:/program files/microchip/xc32/v4.20/bin/bin/../../lib/gcc/pic32c/8.3.1/../../../../pic32c/lib/thumb/v7e-m+fp/hard\libc-musl.a(__out.o)
 .debug_aranges
                0x00001048       0x20 c:/program files/microchip/xc32/v4.20/bin/bin/../../lib/gcc/pic32c/8.3.1/../../../../pic32c/lib/thumb/v7e-m+fp/hard\libc-musl.a(__pop_float.o)
 .debug_aranges
                0x00001068       0x20 c:/program files/microchip/xc32/v4.20/bin/bin/../../lib/gcc/pic32c/8.3.1/../../../../pic32c/lib/thumb/v7e-m+fp/hard\libc-musl.a(__pop_int.o)
 .debug_aranges
                0x00001088       0x20 c:/program files/microchip/xc32/v4.20/bin/bin/../../lib/gcc/pic32c/8.3.1/../../../../pic32c/lib/thumb/v7e-m+fp/hard\libc-musl.a(__pop_ptr.o)
 .debug_aranges
                0x000010a8       0x50 c:/program files/microchip/xc32/v4.20/bin/bin/../../lib/gcc/pic32c/8.3.1/../../../../pic32c/lib/thumb/v7e-m+fp/hard\libc-musl.a(__printf_core.o)
 .debug_aranges
                0x000010f8       0x20 c:/program files/microchip/xc32/v4.20/bin/bin/../../lib/gcc/pic32c/8.3.1/../../../../pic32c/lib/thumb/v7e-m+fp/hard\libc-musl.a(atoi.o)
 .debug_aranges
                0x00001118       0x28 c:/program files/microchip/xc32/v4.20/bin/bin/../../lib/gcc/pic32c/8.3.1/../../../../pic32c/lib/thumb/v7e-m+fp/hard\libc-musl.a(tolower.o)
 .debug_aranges
                0x00001140       0x20 c:/program files/microchip/xc32/v4.20/bin/bin/../../lib/gcc/pic32c/8.3.1/../../../../pic32c/lib/thumb/v7e-m+fp/hard\libc-musl.a(__fmt_a.o)
 .debug_aranges
                0x00001160       0x20 c:/program files/microchip/xc32/v4.20/bin/bin/../../lib/gcc/pic32c/8.3.1/../../../../pic32c/lib/thumb/v7e-m+fp/hard\libc-musl.a(__fmt_d.o)
 .debug_aranges
                0x00001180       0x20 c:/program files/microchip/xc32/v4.20/bin/bin/../../lib/gcc/pic32c/8.3.1/../../../../pic32c/lib/thumb/v7e-m+fp/hard\libc-musl.a(__fmt_fp.o)
 .debug_aranges
                0x000011a0       0x20 c:/program files/microchip/xc32/v4.20/bin/bin/../../lib/gcc/pic32c/8.3.1/../../../../pic32c/lib/thumb/v7e-m+fp/hard\libc-musl.a(__fmt_o.o)
 .debug_aranges
                0x000011c0       0x20 c:/program files/microchip/xc32/v4.20/bin/bin/../../lib/gcc/pic32c/8.3.1/../../../../pic32c/lib/thumb/v7e-m+fp/hard\libc-musl.a(__fmt_s.o)
 .debug_aranges
                0x000011e0       0x28 c:/program files/microchip/xc32/v4.20/bin/bin/../../lib/gcc/pic32c/8.3.1/../../../../pic32c/lib/thumb/v7e-m+fp/hard\libc-musl.a(__fmt_u.o)
 .debug_aranges
                0x00001208       0x20 c:/program files/microchip/xc32/v4.20/bin/bin/../../lib/gcc/pic32c/8.3.1/../../../../pic32c/lib/thumb/v7e-m+fp/hard\libc-musl.a(__fmt_x.o)
 .debug_aranges
                0x00001228       0x28 c:/program files/microchip/xc32/v4.20/bin/bin/../../lib/gcc/pic32c/8.3.1/../../../../pic32c/lib/thumb/v7e-m+fp/hard\libc-musl.a(__init_stdio.o)
 .debug_aranges
                0x00001250       0x28 c:/program files/microchip/xc32/v4.20/bin/bin/../../lib/gcc/pic32c/8.3.1/../../../../pic32c/lib/thumb/v7e-m+fp/hard\libc-musl.a(toupper.o)
 .debug_aranges
                0x00001278       0x20 c:/program files/microchip/xc32/v4.20/bin/bin/../../lib/gcc/pic32c/8.3.1/thumb/v7e-m+fp/hard\libgcc.a(_aeabi_uldivmod.o)
 .debug_aranges
                0x00001298       0x20 c:/program files/microchip/xc32/v4.20/bin/bin/../../lib/gcc/pic32c/8.3.1/thumb/v7e-m+fp/hard\libgcc.a(_udivmoddi4.o)
 .debug_aranges
                0x000012b8       0x20 c:/program files/microchip/xc32/v4.20/bin/bin/../../lib/gcc/pic32c/8.3.1/thumb/v7e-m+fp/hard\libgcc.a(_dvmd_tls.o)

.debug_ranges   0x00000000     0x14e0
 .debug_ranges  0x00000000       0x10 build/mcp9808/production/_ext/1998409442/bsp.o
 .debug_ranges  0x00000010       0x90 build/mcp9808/production/_ext/1243884746/drv_mcp9808.o
 .debug_ranges  0x000000a0       0xf8 build/mcp9808/production/_ext/136144951/drv_i2c.o
 .debug_ranges  0x00000198       0x80 build/mcp9808/production/_ext/1820763632/osal_freertos.o
 .debug_ranges  0x00000218       0x10 build/mcp9808/production/_ext/1885943492/plib_clock.o
 .debug_ranges  0x00000228       0x10 build/mcp9808/production/_ext/1883794006/plib_evsys.o
 .debug_ranges  0x00000238       0x28 build/mcp9808/production/_ext/1324973556/plib_nvic.o
 .debug_ranges  0x00000260       0xc8 build/mcp9808/production/_ext/1541565758/plib_nvmctrl.o
 .debug_ranges  0x00000328       0x60 build/mcp9808/production/_ext/1325026707/plib_port.o
 .debug_ranges  0x00000388       0xe0 build/mcp9808/production/_ext/1646999677/plib_sercom6_i2c_master.o
 .debug_ranges  0x00000468      0x1f0 build/mcp9808/production/_ext/1027107927/plib_sercom1_usart.o
 .debug_ranges  0x00000658       0x18 build/mcp9808/production/_ext/605370968/xc32_monitor.o
 .debug_ranges  0x00000670      0x188 build/mcp9808/production/_ext/1427623807/sys_command.o
 .debug_ranges  0x000007f8       0x78 build/mcp9808/production/_ext/1884335987/sys_console.o
 .debug_ranges  0x00000870       0x60 build/mcp9808/production/_ext/1884335987/sys_console_uart.o
 .debug_ranges  0x000008d0       0x30 build/mcp9808/production/_ext/1587138469/sys_int.o
 .debug_ranges  0x00000900       0x10 build/mcp9808/production/_ext/1581363856/sys_reset.o
 .debug_ranges  0x00000910       0x18 build/mcp9808/production/_ext/519814254/startup_xc32.o
 .debug_ranges  0x00000928       0x10 build/mcp9808/production/_ext/519814254/initialization.o
 .debug_ranges  0x00000938       0x10 build/mcp9808/production/_ext/519814254/interrupts.o
 .debug_ranges  0x00000948       0x30 build/mcp9808/production/_ext/519814254/freertos_hooks.o
 .debug_ranges  0x00000978       0x20 build/mcp9808/production/_ext/519814254/tasks.o
 .debug_ranges  0x00000998       0x38 build/mcp9808/production/_ext/519814254/exceptions.o
 .debug_ranges  0x000009d0       0x68 build/mcp9808/production/_ext/246609638/port.o
 .debug_ranges  0x00000a38       0x28 build/mcp9808/production/_ext/1665200909/heap_1.o
 .debug_ranges  0x00000a60      0x178 build/mcp9808/production/_ext/404212886/queue.o
 .debug_ranges  0x00000bd8      0x2c0 build/mcp9808/production/_ext/404212886/FreeRTOS_tasks.o
 .debug_ranges  0x00000e98       0x30 build/mcp9808/production/_ext/404212886/list.o
 .debug_ranges  0x00000ec8       0x10 build/mcp9808/production/_ext/1360937237/main.o
 .debug_ranges  0x00000ed8       0x38 build/mcp9808/production/_ext/1360937237/app_mcp9808.o
 .debug_ranges  0x00000f10       0x10 c:/program files/microchip/xc32/v4.20/bin/bin/../../lib/gcc/pic32c/8.3.1/../../../../pic32c/lib/thumb/v7e-m+fp/hard\libpic32c.a(data_init_wrapper.o)
 .debug_ranges  0x00000f20       0x10 c:/program files/microchip/xc32/v4.20/bin/bin/../../lib/gcc/pic32c/8.3.1/../../../../pic32c/lib/thumb/v7e-m+fp/hard\libpic32c.a(data_init_0_1.o)
 .debug_ranges  0x00000f30       0x40 c:/program files/microchip/xc32/v4.20/bin/bin/../../lib/gcc/pic32c/8.3.1/../../../../pic32c/lib/thumb/v7e-m+fp/hard\libc-musl.a(__libc_start_main.o)
 .debug_ranges  0x00000f70      0x1a0 c:/program files/microchip/xc32/v4.20/bin/bin/../../lib/gcc/pic32c/8.3.1/../../../../pic32c/lib/thumb/v7e-m+fp/hard\libc-musl.a(malloc.o)
 .debug_ranges  0x00001110       0x10 c:/program files/microchip/xc32/v4.20/bin/bin/../../lib/gcc/pic32c/8.3.1/../../../../pic32c/lib/thumb/v7e-m+fp/hard\libc-musl.a(vsnprintf.o)
 .debug_ranges  0x00001120       0x10 c:/program files/microchip/xc32/v4.20/bin/bin/../../lib/gcc/pic32c/8.3.1/../../../../pic32c/lib/thumb/v7e-m+fp/hard\libc-musl.a(puts.o)
 .debug_ranges  0x00001130       0x10 c:/program files/microchip/xc32/v4.20/bin/bin/../../lib/gcc/pic32c/8.3.1/../../../../pic32c/lib/thumb/v7e-m+fp/hard\libc-musl.a(sprintf.o)
 .debug_ranges  0x00001140       0x10 c:/program files/microchip/xc32/v4.20/bin/bin/../../lib/gcc/pic32c/8.3.1/../../../../pic32c/lib/thumb/v7e-m+fp/hard\libc-musl.a(vsprintf.o)
 .debug_ranges  0x00001150       0x10 c:/program files/microchip/xc32/v4.20/bin/bin/../../lib/gcc/pic32c/8.3.1/../../../../pic32c/lib/thumb/v7e-m+fp/hard\libc-musl.a(memcpy.o)
 .debug_ranges  0x00001160       0x10 c:/program files/microchip/xc32/v4.20/bin/bin/../../lib/gcc/pic32c/8.3.1/../../../../pic32c/lib/thumb/v7e-m+fp/hard\libc-musl.a(memset.o)
 .debug_ranges  0x00001170       0x10 c:/program files/microchip/xc32/v4.20/bin/bin/../../lib/gcc/pic32c/8.3.1/../../../../pic32c/lib/thumb/v7e-m+fp/hard\libc-musl.a(strlen.o)
 .debug_ranges  0x00001180       0x10 c:/program files/microchip/xc32/v4.20/bin/bin/../../lib/gcc/pic32c/8.3.1/../../../../pic32c/lib/thumb/v7e-m+fp/hard\libc-musl.a(strchr.o)
 .debug_ranges  0x00001190       0x10 c:/program files/microchip/xc32/v4.20/bin/bin/../../lib/gcc/pic32c/8.3.1/../../../../pic32c/lib/thumb/v7e-m+fp/hard\libc-musl.a(strchrnul.o)
 .debug_ranges  0x000011a0       0x10 c:/program files/microchip/xc32/v4.20/bin/bin/../../lib/gcc/pic32c/8.3.1/../../../../pic32c/lib/thumb/v7e-m+fp/hard\libc-musl.a(strcmp.o)
 .debug_ranges  0x000011b0       0x10 c:/program files/microchip/xc32/v4.20/bin/bin/../../lib/gcc/pic32c/8.3.1/../../../../pic32c/lib/thumb/v7e-m+fp/hard\libc-musl.a(strcpy.o)
 .debug_ranges  0x000011c0       0x10 c:/program files/microchip/xc32/v4.20/bin/bin/../../lib/gcc/pic32c/8.3.1/../../../../pic32c/lib/thumb/v7e-m+fp/hard\libc-musl.a(strncmp.o)
 .debug_ranges  0x000011d0       0x10 c:/program files/microchip/xc32/v4.20/bin/bin/../../lib/gcc/pic32c/8.3.1/../../../../pic32c/lib/thumb/v7e-m+fp/hard\libc-musl.a(strncpy.o)
 .debug_ranges  0x000011e0       0x10 c:/program files/microchip/xc32/v4.20/bin/bin/../../lib/gcc/pic32c/8.3.1/../../../../pic32c/lib/thumb/v7e-m+fp/hard\libc-musl.a(strtok.o)
 .debug_ranges  0x000011f0       0x10 c:/program files/microchip/xc32/v4.20/bin/bin/../../lib/gcc/pic32c/8.3.1/../../../../pic32c/lib/thumb/v7e-m+fp/hard\libc-musl.a(fputs.o)
 .debug_ranges  0x00001200       0x18 c:/program files/microchip/xc32/v4.20/bin/bin/../../lib/gcc/pic32c/8.3.1/../../../../pic32c/lib/thumb/v7e-m+fp/hard\libc-musl.a(fwrite.o)
 .debug_ranges  0x00001218       0x20 c:/program files/microchip/xc32/v4.20/bin/bin/../../lib/gcc/pic32c/8.3.1/../../../../pic32c/lib/thumb/v7e-m+fp/hard\libc-musl.a(putc.o)
 .debug_ranges  0x00001238       0x20 c:/program files/microchip/xc32/v4.20/bin/bin/../../lib/gcc/pic32c/8.3.1/../../../../pic32c/lib/thumb/v7e-m+fp/hard\libc-musl.a(stdout.o)
 .debug_ranges  0x00001258       0x18 c:/program files/microchip/xc32/v4.20/bin/bin/../../lib/gcc/pic32c/8.3.1/../../../../pic32c/lib/thumb/v7e-m+fp/hard\libc-musl.a(vfprintf.o)
 .debug_ranges  0x00001270       0x10 c:/program files/microchip/xc32/v4.20/bin/bin/../../lib/gcc/pic32c/8.3.1/../../../../pic32c/lib/thumb/v7e-m+fp/hard\libc-musl.a(stpcpy.o)
 .debug_ranges  0x00001280       0x10 c:/program files/microchip/xc32/v4.20/bin/bin/../../lib/gcc/pic32c/8.3.1/../../../../pic32c/lib/thumb/v7e-m+fp/hard\libc-musl.a(stpncpy.o)
 .debug_ranges  0x00001290       0x10 c:/program files/microchip/xc32/v4.20/bin/bin/../../lib/gcc/pic32c/8.3.1/../../../../pic32c/lib/thumb/v7e-m+fp/hard\libc-musl.a(strcspn.o)
 .debug_ranges  0x000012a0       0x10 c:/program files/microchip/xc32/v4.20/bin/bin/../../lib/gcc/pic32c/8.3.1/../../../../pic32c/lib/thumb/v7e-m+fp/hard\libc-musl.a(strspn.o)
 .debug_ranges  0x000012b0       0x18 c:/program files/microchip/xc32/v4.20/bin/bin/../../lib/gcc/pic32c/8.3.1/../../../../pic32c/lib/thumb/v7e-m+fp/hard\libc-musl.a(__out.o)
 .debug_ranges  0x000012c8       0x10 c:/program files/microchip/xc32/v4.20/bin/bin/../../lib/gcc/pic32c/8.3.1/../../../../pic32c/lib/thumb/v7e-m+fp/hard\libc-musl.a(__pop_float.o)
 .debug_ranges  0x000012d8       0x10 c:/program files/microchip/xc32/v4.20/bin/bin/../../lib/gcc/pic32c/8.3.1/../../../../pic32c/lib/thumb/v7e-m+fp/hard\libc-musl.a(__pop_int.o)
 .debug_ranges  0x000012e8       0x10 c:/program files/microchip/xc32/v4.20/bin/bin/../../lib/gcc/pic32c/8.3.1/../../../../pic32c/lib/thumb/v7e-m+fp/hard\libc-musl.a(__pop_ptr.o)
 .debug_ranges  0x000012f8       0x68 c:/program files/microchip/xc32/v4.20/bin/bin/../../lib/gcc/pic32c/8.3.1/../../../../pic32c/lib/thumb/v7e-m+fp/hard\libc-musl.a(__printf_core.o)
 .debug_ranges  0x00001360       0x10 c:/program files/microchip/xc32/v4.20/bin/bin/../../lib/gcc/pic32c/8.3.1/../../../../pic32c/lib/thumb/v7e-m+fp/hard\libc-musl.a(atoi.o)
 .debug_ranges  0x00001370       0x18 c:/program files/microchip/xc32/v4.20/bin/bin/../../lib/gcc/pic32c/8.3.1/../../../../pic32c/lib/thumb/v7e-m+fp/hard\libc-musl.a(tolower.o)
 .debug_ranges  0x00001388       0x10 c:/program files/microchip/xc32/v4.20/bin/bin/../../lib/gcc/pic32c/8.3.1/../../../../pic32c/lib/thumb/v7e-m+fp/hard\libc-musl.a(__fmt_a.o)
 .debug_ranges  0x00001398       0x10 c:/program files/microchip/xc32/v4.20/bin/bin/../../lib/gcc/pic32c/8.3.1/../../../../pic32c/lib/thumb/v7e-m+fp/hard\libc-musl.a(__fmt_d.o)
 .debug_ranges  0x000013a8       0x10 c:/program files/microchip/xc32/v4.20/bin/bin/../../lib/gcc/pic32c/8.3.1/../../../../pic32c/lib/thumb/v7e-m+fp/hard\libc-musl.a(__fmt_fp.o)
 .debug_ranges  0x000013b8       0x10 c:/program files/microchip/xc32/v4.20/bin/bin/../../lib/gcc/pic32c/8.3.1/../../../../pic32c/lib/thumb/v7e-m+fp/hard\libc-musl.a(__fmt_o.o)
 .debug_ranges  0x000013c8       0x10 c:/program files/microchip/xc32/v4.20/bin/bin/../../lib/gcc/pic32c/8.3.1/../../../../pic32c/lib/thumb/v7e-m+fp/hard\libc-musl.a(__fmt_s.o)
 .debug_ranges  0x000013d8       0x18 c:/program files/microchip/xc32/v4.20/bin/bin/../../lib/gcc/pic32c/8.3.1/../../../../pic32c/lib/thumb/v7e-m+fp/hard\libc-musl.a(__fmt_u.o)
 .debug_ranges  0x000013f0       0x10 c:/program files/microchip/xc32/v4.20/bin/bin/../../lib/gcc/pic32c/8.3.1/../../../../pic32c/lib/thumb/v7e-m+fp/hard\libc-musl.a(__fmt_x.o)
 .debug_ranges  0x00001400       0x18 c:/program files/microchip/xc32/v4.20/bin/bin/../../lib/gcc/pic32c/8.3.1/../../../../pic32c/lib/thumb/v7e-m+fp/hard\libc-musl.a(__init_stdio.o)
 .debug_ranges  0x00001418       0x18 c:/program files/microchip/xc32/v4.20/bin/bin/../../lib/gcc/pic32c/8.3.1/../../../../pic32c/lib/thumb/v7e-m+fp/hard\libc-musl.a(toupper.o)
 .debug_ranges  0x00001430       0xb0 c:/program files/microchip/xc32/v4.20/bin/bin/../../lib/gcc/pic32c/8.3.1/thumb/v7e-m+fp/hard\libgcc.a(_udivmoddi4.o)

.debug_line     0x00000000     0xfc95
 .debug_line    0x00000000       0xd8 build/mcp9808/production/_ext/1998409442/bsp.o
 .debug_line    0x000000d8      0x7ca build/mcp9808/production/_ext/1243884746/drv_mcp9808.o
 .debug_line    0x000008a2      0xe4e build/mcp9808/production/_ext/136144951/drv_i2c.o
 .debug_line    0x000016f0      0x418 build/mcp9808/production/_ext/1820763632/osal_freertos.o
 .debug_line    0x00001b08      0x272 build/mcp9808/production/_ext/1885943492/plib_clock.o
 .debug_line    0x00001d7a       0x66 build/mcp9808/production/_ext/1883794006/plib_evsys.o
 .debug_line    0x00001de0      0x490 build/mcp9808/production/_ext/1324973556/plib_nvic.o
 .debug_line    0x00002270      0x5c2 build/mcp9808/production/_ext/1541565758/plib_nvmctrl.o
 .debug_line    0x00002832      0x2f1 build/mcp9808/production/_ext/1325026707/plib_port.o
 .debug_line    0x00002b23      0x7df build/mcp9808/production/_ext/1646999677/plib_sercom6_i2c_master.o
 .debug_line    0x00003302      0xb87 build/mcp9808/production/_ext/1027107927/plib_sercom1_usart.o
 .debug_line    0x00003e89       0xca build/mcp9808/production/_ext/605370968/xc32_monitor.o
 .debug_line    0x00003f53      0xf73 build/mcp9808/production/_ext/1427623807/sys_command.o
 .debug_line    0x00004ec6      0x64e build/mcp9808/production/_ext/1884335987/sys_console.o
 .debug_line    0x00005514      0x4a1 build/mcp9808/production/_ext/1884335987/sys_console_uart.o
 .debug_line    0x000059b5      0x2bf build/mcp9808/production/_ext/1587138469/sys_int.o
 .debug_line    0x00005c74      0x134 build/mcp9808/production/_ext/1581363856/sys_reset.o
 .debug_line    0x00005da8      0x246 build/mcp9808/production/_ext/519814254/startup_xc32.o
 .debug_line    0x00005fee      0x4fb build/mcp9808/production/_ext/519814254/initialization.o
 .debug_line    0x000064e9       0xba build/mcp9808/production/_ext/519814254/interrupts.o
 .debug_line    0x000065a3      0x1df build/mcp9808/production/_ext/519814254/freertos_hooks.o
 .debug_line    0x00006782      0x1ce build/mcp9808/production/_ext/519814254/tasks.o
 .debug_line    0x00006950       0xc6 build/mcp9808/production/_ext/519814254/exceptions.o
 .debug_line    0x00006a16      0x366 build/mcp9808/production/_ext/246609638/port.o
 .debug_line    0x00006d7c      0x21e build/mcp9808/production/_ext/1665200909/heap_1.o
 .debug_line    0x00006f9a      0xef9 build/mcp9808/production/_ext/404212886/queue.o
 .debug_line    0x00007e93     0x18c7 build/mcp9808/production/_ext/404212886/FreeRTOS_tasks.o
 .debug_line    0x0000975a      0x2e4 build/mcp9808/production/_ext/404212886/list.o
 .debug_line    0x00009a3e       0x6d build/mcp9808/production/_ext/1360937237/main.o
 .debug_line    0x00009aab      0x388 build/mcp9808/production/_ext/1360937237/app_mcp9808.o
 .debug_line    0x00009e33       0xa8 c:/program files/microchip/xc32/v4.20/bin/bin/../../lib/gcc/pic32c/8.3.1/../../../../pic32c/lib/thumb/v7e-m+fp/hard\libpic32c.a(data_init_wrapper.o)
 .debug_line    0x00009edb       0xf1 c:/program files/microchip/xc32/v4.20/bin/bin/../../lib/gcc/pic32c/8.3.1/../../../../pic32c/lib/thumb/v7e-m+fp/hard\libpic32c.a(data_init_0_1.o)
 .debug_line    0x00009fcc      0x1d3 c:/program files/microchip/xc32/v4.20/bin/bin/../../lib/gcc/pic32c/8.3.1/../../../../pic32c/lib/thumb/v7e-m+fp/hard\libc-musl.a(__libc_start_main.o)
 .debug_line    0x0000a19f       0xbb c:/program files/microchip/xc32/v4.20/bin/bin/../../lib/gcc/pic32c/8.3.1/../../../../pic32c/lib/thumb/v7e-m+fp/hard\libc-musl.a(libc.o)
 .debug_line    0x0000a25a      0xac0 c:/program files/microchip/xc32/v4.20/bin/bin/../../lib/gcc/pic32c/8.3.1/../../../../pic32c/lib/thumb/v7e-m+fp/hard\libc-musl.a(malloc.o)
 .debug_line    0x0000ad1a      0x238 c:/program files/microchip/xc32/v4.20/bin/bin/../../lib/gcc/pic32c/8.3.1/../../../../pic32c/lib/thumb/v7e-m+fp/hard\libc-musl.a(vsnprintf.o)
 .debug_line    0x0000af52      0x1d9 c:/program files/microchip/xc32/v4.20/bin/bin/../../lib/gcc/pic32c/8.3.1/../../../../pic32c/lib/thumb/v7e-m+fp/hard\libc-musl.a(puts.o)
 .debug_line    0x0000b12b      0x15d c:/program files/microchip/xc32/v4.20/bin/bin/../../lib/gcc/pic32c/8.3.1/../../../../pic32c/lib/thumb/v7e-m+fp/hard\libc-musl.a(sprintf.o)
 .debug_line    0x0000b288      0x14c c:/program files/microchip/xc32/v4.20/bin/bin/../../lib/gcc/pic32c/8.3.1/../../../../pic32c/lib/thumb/v7e-m+fp/hard\libc-musl.a(vsprintf.o)
 .debug_line    0x0000b3d4       0xf1 c:/program files/microchip/xc32/v4.20/bin/bin/../../lib/gcc/pic32c/8.3.1/../../../../pic32c/lib/thumb/v7e-m+fp/hard\libc-musl.a(memcpy.o)
 .debug_line    0x0000b4c5       0xe8 c:/program files/microchip/xc32/v4.20/bin/bin/../../lib/gcc/pic32c/8.3.1/../../../../pic32c/lib/thumb/v7e-m+fp/hard\libc-musl.a(memset.o)
 .debug_line    0x0000b5ad       0xe4 c:/program files/microchip/xc32/v4.20/bin/bin/../../lib/gcc/pic32c/8.3.1/../../../../pic32c/lib/thumb/v7e-m+fp/hard\libc-musl.a(strlen.o)
 .debug_line    0x0000b691       0xb8 c:/program files/microchip/xc32/v4.20/bin/bin/../../lib/gcc/pic32c/8.3.1/../../../../pic32c/lib/thumb/v7e-m+fp/hard\libc-musl.a(strchr.o)
 .debug_line    0x0000b749      0x192 c:/program files/microchip/xc32/v4.20/bin/bin/../../lib/gcc/pic32c/8.3.1/../../../../pic32c/lib/thumb/v7e-m+fp/hard\libc-musl.a(strchrnul.o)
 .debug_line    0x0000b8db       0xc0 c:/program files/microchip/xc32/v4.20/bin/bin/../../lib/gcc/pic32c/8.3.1/../../../../pic32c/lib/thumb/v7e-m+fp/hard\libc-musl.a(strcmp.o)
 .debug_line    0x0000b99b       0xb3 c:/program files/microchip/xc32/v4.20/bin/bin/../../lib/gcc/pic32c/8.3.1/../../../../pic32c/lib/thumb/v7e-m+fp/hard\libc-musl.a(strcpy.o)
 .debug_line    0x0000ba4e       0xf1 c:/program files/microchip/xc32/v4.20/bin/bin/../../lib/gcc/pic32c/8.3.1/../../../../pic32c/lib/thumb/v7e-m+fp/hard\libc-musl.a(strncmp.o)
 .debug_line    0x0000bb3f       0xd3 c:/program files/microchip/xc32/v4.20/bin/bin/../../lib/gcc/pic32c/8.3.1/../../../../pic32c/lib/thumb/v7e-m+fp/hard\libc-musl.a(strncpy.o)
 .debug_line    0x0000bc12      0x170 c:/program files/microchip/xc32/v4.20/bin/bin/../../lib/gcc/pic32c/8.3.1/../../../../pic32c/lib/thumb/v7e-m+fp/hard\libc-musl.a(strtok.o)
 .debug_line    0x0000bd82      0x107 c:/program files/microchip/xc32/v4.20/bin/bin/../../lib/gcc/pic32c/8.3.1/../../../../pic32c/lib/thumb/v7e-m+fp/hard\libc-musl.a(__environ.o)
 .debug_line    0x0000be89       0xa0 c:/program files/microchip/xc32/v4.20/bin/bin/../../lib/gcc/pic32c/8.3.1/../../../../pic32c/lib/thumb/v7e-m+fp/hard\libc-musl.a(__errno_location.o)
 .debug_line    0x0000bf29      0x246 c:/program files/microchip/xc32/v4.20/bin/bin/../../lib/gcc/pic32c/8.3.1/../../../../pic32c/lib/thumb/v7e-m+fp/hard\libc-musl.a(fputs.o)
 .debug_line    0x0000c16f      0x1ff c:/program files/microchip/xc32/v4.20/bin/bin/../../lib/gcc/pic32c/8.3.1/../../../../pic32c/lib/thumb/v7e-m+fp/hard\libc-musl.a(fwrite.o)
 .debug_line    0x0000c36e      0x1aa c:/program files/microchip/xc32/v4.20/bin/bin/../../lib/gcc/pic32c/8.3.1/../../../../pic32c/lib/thumb/v7e-m+fp/hard\libc-musl.a(putc.o)
 .debug_line    0x0000c518      0x18d c:/program files/microchip/xc32/v4.20/bin/bin/../../lib/gcc/pic32c/8.3.1/../../../../pic32c/lib/thumb/v7e-m+fp/hard\libc-musl.a(stdout.o)
 .debug_line    0x0000c6a5      0x1f8 c:/program files/microchip/xc32/v4.20/bin/bin/../../lib/gcc/pic32c/8.3.1/../../../../pic32c/lib/thumb/v7e-m+fp/hard\libc-musl.a(vfprintf.o)
 .debug_line    0x0000c89d       0xc7 c:/program files/microchip/xc32/v4.20/bin/bin/../../lib/gcc/pic32c/8.3.1/../../../../pic32c/lib/thumb/v7e-m+fp/hard\libc-musl.a(stpcpy.o)
 .debug_line    0x0000c964      0x112 c:/program files/microchip/xc32/v4.20/bin/bin/../../lib/gcc/pic32c/8.3.1/../../../../pic32c/lib/thumb/v7e-m+fp/hard\libc-musl.a(stpncpy.o)
 .debug_line    0x0000ca76      0x18c c:/program files/microchip/xc32/v4.20/bin/bin/../../lib/gcc/pic32c/8.3.1/../../../../pic32c/lib/thumb/v7e-m+fp/hard\libc-musl.a(strcspn.o)
 .debug_line    0x0000cc02      0x12d c:/program files/microchip/xc32/v4.20/bin/bin/../../lib/gcc/pic32c/8.3.1/../../../../pic32c/lib/thumb/v7e-m+fp/hard\libc-musl.a(strspn.o)
 .debug_line    0x0000cd2f      0x231 c:/program files/microchip/xc32/v4.20/bin/bin/../../lib/gcc/pic32c/8.3.1/../../../../pic32c/lib/thumb/v7e-m+fp/hard\libc-musl.a(__out.o)
 .debug_line    0x0000cf60      0x171 c:/program files/microchip/xc32/v4.20/bin/bin/../../lib/gcc/pic32c/8.3.1/../../../../pic32c/lib/thumb/v7e-m+fp/hard\libc-musl.a(__pop_float.o)
 .debug_line    0x0000d0d1      0x20c c:/program files/microchip/xc32/v4.20/bin/bin/../../lib/gcc/pic32c/8.3.1/../../../../pic32c/lib/thumb/v7e-m+fp/hard\libc-musl.a(__pop_int.o)
 .debug_line    0x0000d2dd      0x1ec c:/program files/microchip/xc32/v4.20/bin/bin/../../lib/gcc/pic32c/8.3.1/../../../../pic32c/lib/thumb/v7e-m+fp/hard\libc-musl.a(__pop_ptr.o)
 .debug_line    0x0000d4c9      0x69b c:/program files/microchip/xc32/v4.20/bin/bin/../../lib/gcc/pic32c/8.3.1/../../../../pic32c/lib/thumb/v7e-m+fp/hard\libc-musl.a(__printf_core.o)
 .debug_line    0x0000db64      0x173 c:/program files/microchip/xc32/v4.20/bin/bin/../../lib/gcc/pic32c/8.3.1/../../../../pic32c/lib/thumb/v7e-m+fp/hard\libc-musl.a(atoi.o)
 .debug_line    0x0000dcd7      0x163 c:/program files/microchip/xc32/v4.20/bin/bin/../../lib/gcc/pic32c/8.3.1/../../../../pic32c/lib/thumb/v7e-m+fp/hard\libc-musl.a(tolower.o)
 .debug_line    0x0000de3a      0x63b c:/program files/microchip/xc32/v4.20/bin/bin/../../lib/gcc/pic32c/8.3.1/../../../../pic32c/lib/thumb/v7e-m+fp/hard\libc-musl.a(__fmt_a.o)
 .debug_line    0x0000e475      0x20b c:/program files/microchip/xc32/v4.20/bin/bin/../../lib/gcc/pic32c/8.3.1/../../../../pic32c/lib/thumb/v7e-m+fp/hard\libc-musl.a(__fmt_d.o)
 .debug_line    0x0000e680      0x680 c:/program files/microchip/xc32/v4.20/bin/bin/../../lib/gcc/pic32c/8.3.1/../../../../pic32c/lib/thumb/v7e-m+fp/hard\libc-musl.a(__fmt_fp.o)
 .debug_line    0x0000ed00      0x1b5 c:/program files/microchip/xc32/v4.20/bin/bin/../../lib/gcc/pic32c/8.3.1/../../../../pic32c/lib/thumb/v7e-m+fp/hard\libc-musl.a(__fmt_o.o)
 .debug_line    0x0000eeb5      0x1fd c:/program files/microchip/xc32/v4.20/bin/bin/../../lib/gcc/pic32c/8.3.1/../../../../pic32c/lib/thumb/v7e-m+fp/hard\libc-musl.a(__fmt_s.o)
 .debug_line    0x0000f0b2      0x23f c:/program files/microchip/xc32/v4.20/bin/bin/../../lib/gcc/pic32c/8.3.1/../../../../pic32c/lib/thumb/v7e-m+fp/hard\libc-musl.a(__fmt_u.o)
 .debug_line    0x0000f2f1      0x2df c:/program files/microchip/xc32/v4.20/bin/bin/../../lib/gcc/pic32c/8.3.1/../../../../pic32c/lib/thumb/v7e-m+fp/hard\libc-musl.a(__fmt_x.o)
 .debug_line    0x0000f5d0       0xce c:/program files/microchip/xc32/v4.20/bin/bin/../../lib/gcc/pic32c/8.3.1/../../../../pic32c/lib/thumb/v7e-m+fp/hard\libc-musl.a(__init_stdio.o)
 .debug_line    0x0000f69e      0x163 c:/program files/microchip/xc32/v4.20/bin/bin/../../lib/gcc/pic32c/8.3.1/../../../../pic32c/lib/thumb/v7e-m+fp/hard\libc-musl.a(toupper.o)
 .debug_line    0x0000f801       0x97 c:/program files/microchip/xc32/v4.20/bin/bin/../../lib/gcc/pic32c/8.3.1/thumb/v7e-m+fp/hard\libgcc.a(_aeabi_uldivmod.o)
 .debug_line    0x0000f898      0x366 c:/program files/microchip/xc32/v4.20/bin/bin/../../lib/gcc/pic32c/8.3.1/thumb/v7e-m+fp/hard\libgcc.a(_udivmoddi4.o)
 .debug_line    0x0000fbfe       0x97 c:/program files/microchip/xc32/v4.20/bin/bin/../../lib/gcc/pic32c/8.3.1/thumb/v7e-m+fp/hard\libgcc.a(_dvmd_tls.o)

.debug_str      0x00000000     0x1509
 .debug_str     0x00000000        0x0 build/mcp9808/production/_ext/1998409442/bsp.o
 .debug_str     0x00000000       0xa5 build/mcp9808/production/_ext/1243884746/drv_mcp9808.o
 .debug_str     0x000000a5      0x1bf build/mcp9808/production/_ext/136144951/drv_i2c.o
 .debug_str     0x00000264      0x13b build/mcp9808/production/_ext/1820763632/osal_freertos.o
 .debug_str     0x0000039f       0x1e build/mcp9808/production/_ext/1885943492/plib_clock.o
 .debug_str     0x000003bd        0x0 build/mcp9808/production/_ext/1883794006/plib_evsys.o
 .debug_str     0x000003bd        0xa build/mcp9808/production/_ext/1324973556/plib_nvic.o
 .debug_str     0x000003c7       0x20 build/mcp9808/production/_ext/1541565758/plib_nvmctrl.o
 .debug_str     0x000003e7        0xb build/mcp9808/production/_ext/1325026707/plib_port.o
 .debug_str     0x000003f2      0x175 build/mcp9808/production/_ext/1646999677/plib_sercom6_i2c_master.o
 .debug_str     0x00000567      0x1c8 build/mcp9808/production/_ext/1027107927/plib_sercom1_usart.o
 .debug_str     0x0000072f        0x0 build/mcp9808/production/_ext/605370968/xc32_monitor.o
 .debug_str     0x0000072f       0xcb build/mcp9808/production/_ext/1427623807/sys_command.o
 .debug_str     0x000007fa       0x58 build/mcp9808/production/_ext/1884335987/sys_console.o
 .debug_str     0x00000852       0xb3 build/mcp9808/production/_ext/1884335987/sys_console_uart.o
 .debug_str     0x00000905       0x32 build/mcp9808/production/_ext/1587138469/sys_int.o
 .debug_str     0x00000937        0x0 build/mcp9808/production/_ext/1581363856/sys_reset.o
 .debug_str     0x00000937       0x2f build/mcp9808/production/_ext/519814254/startup_xc32.o
 .debug_str     0x00000966      0x1a2 build/mcp9808/production/_ext/519814254/initialization.o
 .debug_str     0x00000b08        0x0 build/mcp9808/production/_ext/519814254/interrupts.o
 .debug_str     0x00000b08       0x25 build/mcp9808/production/_ext/519814254/freertos_hooks.o
 .debug_str     0x00000b2d       0x58 build/mcp9808/production/_ext/519814254/tasks.o
 .debug_str     0x00000b85        0x0 build/mcp9808/production/_ext/519814254/exceptions.o
 .debug_str     0x00000b85       0x26 build/mcp9808/production/_ext/246609638/port.o
 .debug_str     0x00000bab       0x3c build/mcp9808/production/_ext/1665200909/heap_1.o
 .debug_str     0x00000be7      0x2a6 build/mcp9808/production/_ext/404212886/queue.o
 .debug_str     0x00000e8d      0x2a9 build/mcp9808/production/_ext/404212886/FreeRTOS_tasks.o
 .debug_str     0x00001136       0x2b build/mcp9808/production/_ext/404212886/list.o
 .debug_str     0x00001161       0x19 build/mcp9808/production/_ext/1360937237/main.o
 .debug_str     0x0000117a       0xea build/mcp9808/production/_ext/1360937237/app_mcp9808.o
 .debug_str     0x00001264        0x0 c:/program files/microchip/xc32/v4.20/bin/bin/../../lib/gcc/pic32c/8.3.1/../../../../pic32c/lib/thumb/v7e-m+fp/hard\libpic32c.a(data_init_wrapper.o)
 .debug_str     0x00001264        0x0 c:/program files/microchip/xc32/v4.20/bin/bin/../../lib/gcc/pic32c/8.3.1/../../../../pic32c/lib/thumb/v7e-m+fp/hard\libpic32c.a(data_init_0_1.o)
 .debug_str     0x00001264        0x0 c:/program files/microchip/xc32/v4.20/bin/bin/../../lib/gcc/pic32c/8.3.1/../../../../pic32c/lib/thumb/v7e-m+fp/hard\libc-musl.a(__libc_start_main.o)
 .debug_str     0x00001264        0x0 c:/program files/microchip/xc32/v4.20/bin/bin/../../lib/gcc/pic32c/8.3.1/../../../../pic32c/lib/thumb/v7e-m+fp/hard\libc-musl.a(libc.o)
 .debug_str     0x00001264       0x13 c:/program files/microchip/xc32/v4.20/bin/bin/../../lib/gcc/pic32c/8.3.1/../../../../pic32c/lib/thumb/v7e-m+fp/hard\libc-musl.a(malloc.o)
 .debug_str     0x00001277        0x9 c:/program files/microchip/xc32/v4.20/bin/bin/../../lib/gcc/pic32c/8.3.1/../../../../pic32c/lib/thumb/v7e-m+fp/hard\libc-musl.a(vsnprintf.o)
 .debug_str     0x00001280        0xe c:/program files/microchip/xc32/v4.20/bin/bin/../../lib/gcc/pic32c/8.3.1/../../../../pic32c/lib/thumb/v7e-m+fp/hard\libc-musl.a(puts.o)
 .debug_str     0x0000128e        0x9 c:/program files/microchip/xc32/v4.20/bin/bin/../../lib/gcc/pic32c/8.3.1/../../../../pic32c/lib/thumb/v7e-m+fp/hard\libc-musl.a(sprintf.o)
 .debug_str     0x00001297        0xa c:/program files/microchip/xc32/v4.20/bin/bin/../../lib/gcc/pic32c/8.3.1/../../../../pic32c/lib/thumb/v7e-m+fp/hard\libc-musl.a(vsprintf.o)
 .debug_str     0x000012a1        0x0 c:/program files/microchip/xc32/v4.20/bin/bin/../../lib/gcc/pic32c/8.3.1/../../../../pic32c/lib/thumb/v7e-m+fp/hard\libc-musl.a(memcpy.o)
 .debug_str     0x000012a1        0x0 c:/program files/microchip/xc32/v4.20/bin/bin/../../lib/gcc/pic32c/8.3.1/../../../../pic32c/lib/thumb/v7e-m+fp/hard\libc-musl.a(memset.o)
 .debug_str     0x000012a1        0x0 c:/program files/microchip/xc32/v4.20/bin/bin/../../lib/gcc/pic32c/8.3.1/../../../../pic32c/lib/thumb/v7e-m+fp/hard\libc-musl.a(strlen.o)
 .debug_str     0x000012a1        0xc c:/program files/microchip/xc32/v4.20/bin/bin/../../lib/gcc/pic32c/8.3.1/../../../../pic32c/lib/thumb/v7e-m+fp/hard\libc-musl.a(strchr.o)
 .debug_str     0x000012ad        0x0 c:/program files/microchip/xc32/v4.20/bin/bin/../../lib/gcc/pic32c/8.3.1/../../../../pic32c/lib/thumb/v7e-m+fp/hard\libc-musl.a(strchrnul.o)
 .debug_str     0x000012ad        0x0 c:/program files/microchip/xc32/v4.20/bin/bin/../../lib/gcc/pic32c/8.3.1/../../../../pic32c/lib/thumb/v7e-m+fp/hard\libc-musl.a(strcmp.o)
 .debug_str     0x000012ad        0x9 c:/program files/microchip/xc32/v4.20/bin/bin/../../lib/gcc/pic32c/8.3.1/../../../../pic32c/lib/thumb/v7e-m+fp/hard\libc-musl.a(strcpy.o)
 .debug_str     0x000012b6        0x0 c:/program files/microchip/xc32/v4.20/bin/bin/../../lib/gcc/pic32c/8.3.1/../../../../pic32c/lib/thumb/v7e-m+fp/hard\libc-musl.a(strncmp.o)
 .debug_str     0x000012b6        0xa c:/program files/microchip/xc32/v4.20/bin/bin/../../lib/gcc/pic32c/8.3.1/../../../../pic32c/lib/thumb/v7e-m+fp/hard\libc-musl.a(strncpy.o)
 .debug_str     0x000012c0        0x0 c:/program files/microchip/xc32/v4.20/bin/bin/../../lib/gcc/pic32c/8.3.1/../../../../pic32c/lib/thumb/v7e-m+fp/hard\libc-musl.a(strtok.o)
 .debug_str     0x000012c0        0x0 c:/program files/microchip/xc32/v4.20/bin/bin/../../lib/gcc/pic32c/8.3.1/../../../../pic32c/lib/thumb/v7e-m+fp/hard\libc-musl.a(__environ.o)
 .debug_str     0x000012c0        0x0 c:/program files/microchip/xc32/v4.20/bin/bin/../../lib/gcc/pic32c/8.3.1/../../../../pic32c/lib/thumb/v7e-m+fp/hard\libc-musl.a(__errno_location.o)
 .debug_str     0x000012c0        0x0 c:/program files/microchip/xc32/v4.20/bin/bin/../../lib/gcc/pic32c/8.3.1/../../../../pic32c/lib/thumb/v7e-m+fp/hard\libc-musl.a(fputs.o)
 .debug_str     0x000012c0        0x0 c:/program files/microchip/xc32/v4.20/bin/bin/../../lib/gcc/pic32c/8.3.1/../../../../pic32c/lib/thumb/v7e-m+fp/hard\libc-musl.a(fwrite.o)
 .debug_str     0x000012c0       0x16 c:/program files/microchip/xc32/v4.20/bin/bin/../../lib/gcc/pic32c/8.3.1/../../../../pic32c/lib/thumb/v7e-m+fp/hard\libc-musl.a(putc.o)
 .debug_str     0x000012d6       0x11 c:/program files/microchip/xc32/v4.20/bin/bin/../../lib/gcc/pic32c/8.3.1/../../../../pic32c/lib/thumb/v7e-m+fp/hard\libc-musl.a(stdout.o)
 .debug_str     0x000012e7       0x1e c:/program files/microchip/xc32/v4.20/bin/bin/../../lib/gcc/pic32c/8.3.1/../../../../pic32c/lib/thumb/v7e-m+fp/hard\libc-musl.a(vfprintf.o)
 .debug_str     0x00001305        0x0 c:/program files/microchip/xc32/v4.20/bin/bin/../../lib/gcc/pic32c/8.3.1/../../../../pic32c/lib/thumb/v7e-m+fp/hard\libc-musl.a(stpcpy.o)
 .debug_str     0x00001305        0x0 c:/program files/microchip/xc32/v4.20/bin/bin/../../lib/gcc/pic32c/8.3.1/../../../../pic32c/lib/thumb/v7e-m+fp/hard\libc-musl.a(stpncpy.o)
 .debug_str     0x00001305        0xc c:/program files/microchip/xc32/v4.20/bin/bin/../../lib/gcc/pic32c/8.3.1/../../../../pic32c/lib/thumb/v7e-m+fp/hard\libc-musl.a(strcspn.o)
 .debug_str     0x00001311        0x0 c:/program files/microchip/xc32/v4.20/bin/bin/../../lib/gcc/pic32c/8.3.1/../../../../pic32c/lib/thumb/v7e-m+fp/hard\libc-musl.a(strspn.o)
 .debug_str     0x00001311        0x0 c:/program files/microchip/xc32/v4.20/bin/bin/../../lib/gcc/pic32c/8.3.1/../../../../pic32c/lib/thumb/v7e-m+fp/hard\libc-musl.a(__out.o)
 .debug_str     0x00001311        0x0 c:/program files/microchip/xc32/v4.20/bin/bin/../../lib/gcc/pic32c/8.3.1/../../../../pic32c/lib/thumb/v7e-m+fp/hard\libc-musl.a(__pop_float.o)
 .debug_str     0x00001311        0x0 c:/program files/microchip/xc32/v4.20/bin/bin/../../lib/gcc/pic32c/8.3.1/../../../../pic32c/lib/thumb/v7e-m+fp/hard\libc-musl.a(__pop_int.o)
 .debug_str     0x00001311        0x0 c:/program files/microchip/xc32/v4.20/bin/bin/../../lib/gcc/pic32c/8.3.1/../../../../pic32c/lib/thumb/v7e-m+fp/hard\libc-musl.a(__pop_ptr.o)
 .debug_str     0x00001311       0x20 c:/program files/microchip/xc32/v4.20/bin/bin/../../lib/gcc/pic32c/8.3.1/../../../../pic32c/lib/thumb/v7e-m+fp/hard\libc-musl.a(__printf_core.o)
 .debug_str     0x00001331        0x0 c:/program files/microchip/xc32/v4.20/bin/bin/../../lib/gcc/pic32c/8.3.1/../../../../pic32c/lib/thumb/v7e-m+fp/hard\libc-musl.a(atoi.o)
 .debug_str     0x00001331        0x0 c:/program files/microchip/xc32/v4.20/bin/bin/../../lib/gcc/pic32c/8.3.1/../../../../pic32c/lib/thumb/v7e-m+fp/hard\libc-musl.a(tolower.o)
 .debug_str     0x00001331        0x0 c:/program files/microchip/xc32/v4.20/bin/bin/../../lib/gcc/pic32c/8.3.1/../../../../pic32c/lib/thumb/v7e-m+fp/hard\libc-musl.a(__fmt_a.o)
 .debug_str     0x00001331        0x0 c:/program files/microchip/xc32/v4.20/bin/bin/../../lib/gcc/pic32c/8.3.1/../../../../pic32c/lib/thumb/v7e-m+fp/hard\libc-musl.a(__fmt_d.o)
 .debug_str     0x00001331        0x0 c:/program files/microchip/xc32/v4.20/bin/bin/../../lib/gcc/pic32c/8.3.1/../../../../pic32c/lib/thumb/v7e-m+fp/hard\libc-musl.a(__fmt_fp.o)
 .debug_str     0x00001331        0x0 c:/program files/microchip/xc32/v4.20/bin/bin/../../lib/gcc/pic32c/8.3.1/../../../../pic32c/lib/thumb/v7e-m+fp/hard\libc-musl.a(__fmt_o.o)
 .debug_str     0x00001331        0x0 c:/program files/microchip/xc32/v4.20/bin/bin/../../lib/gcc/pic32c/8.3.1/../../../../pic32c/lib/thumb/v7e-m+fp/hard\libc-musl.a(__fmt_s.o)
 .debug_str     0x00001331        0x6 c:/program files/microchip/xc32/v4.20/bin/bin/../../lib/gcc/pic32c/8.3.1/../../../../pic32c/lib/thumb/v7e-m+fp/hard\libc-musl.a(__fmt_u.o)
 .debug_str     0x00001337        0x0 c:/program files/microchip/xc32/v4.20/bin/bin/../../lib/gcc/pic32c/8.3.1/../../../../pic32c/lib/thumb/v7e-m+fp/hard\libc-musl.a(__fmt_x.o)
 .debug_str     0x00001337        0x0 c:/program files/microchip/xc32/v4.20/bin/bin/../../lib/gcc/pic32c/8.3.1/../../../../pic32c/lib/thumb/v7e-m+fp/hard\libc-musl.a(__init_stdio.o)
 .debug_str     0x00001337        0x0 c:/program files/microchip/xc32/v4.20/bin/bin/../../lib/gcc/pic32c/8.3.1/../../../../pic32c/lib/thumb/v7e-m+fp/hard\libc-musl.a(toupper.o)
 .debug_str     0x00001337       0xe7 c:/program files/microchip/xc32/v4.20/bin/bin/../../lib/gcc/pic32c/8.3.1/thumb/v7e-m+fp/hard\libgcc.a(_aeabi_uldivmod.o)
 .debug_str     0x0000141e        0x0 c:/program files/microchip/xc32/v4.20/bin/bin/../../lib/gcc/pic32c/8.3.1/thumb/v7e-m+fp/hard\libgcc.a(_udivmoddi4.o)
 .debug_str     0x0000141e       0xeb c:/program files/microchip/xc32/v4.20/bin/bin/../../lib/gcc/pic32c/8.3.1/thumb/v7e-m+fp/hard\libgcc.a(_dvmd_tls.o)

.debug_frame    0x00000000     0x28b8
 .debug_frame   0x00000000       0x20 build/mcp9808/production/_ext/1998409442/bsp.o
 .debug_frame   0x00000020      0x1d4 build/mcp9808/production/_ext/1243884746/drv_mcp9808.o
 .debug_frame   0x000001f4      0x2a0 build/mcp9808/production/_ext/136144951/drv_i2c.o
 .debug_frame   0x00000494      0x180 build/mcp9808/production/_ext/1820763632/osal_freertos.o
 .debug_frame   0x00000614       0x20 build/mcp9808/production/_ext/1885943492/plib_clock.o
 .debug_frame   0x00000634       0x20 build/mcp9808/production/_ext/1883794006/plib_evsys.o
 .debug_frame   0x00000654       0x50 build/mcp9808/production/_ext/1324973556/plib_nvic.o
 .debug_frame   0x000006a4      0x1dc build/mcp9808/production/_ext/1541565758/plib_nvmctrl.o
 .debug_frame   0x00000880       0xd8 build/mcp9808/production/_ext/1325026707/plib_port.o
 .debug_frame   0x00000958       0xe0 build/mcp9808/production/_ext/1646999677/plib_sercom6_i2c_master.o
 .debug_frame   0x00000a38      0x1d8 build/mcp9808/production/_ext/1027107927/plib_sercom1_usart.o
 .debug_frame   0x00000c10       0x30 build/mcp9808/production/_ext/605370968/xc32_monitor.o
 .debug_frame   0x00000c40      0x2ec build/mcp9808/production/_ext/1427623807/sys_command.o
 .debug_frame   0x00000f2c      0x1d0 build/mcp9808/production/_ext/1884335987/sys_console.o
 .debug_frame   0x000010fc      0x12c build/mcp9808/production/_ext/1884335987/sys_console_uart.o
 .debug_frame   0x00001228       0x84 build/mcp9808/production/_ext/1587138469/sys_int.o
 .debug_frame   0x000012ac       0x20 build/mcp9808/production/_ext/1581363856/sys_reset.o
 .debug_frame   0x000012cc       0x38 build/mcp9808/production/_ext/519814254/startup_xc32.o
 .debug_frame   0x00001304       0x28 build/mcp9808/production/_ext/519814254/initialization.o
 .debug_frame   0x0000132c       0x20 build/mcp9808/production/_ext/519814254/interrupts.o
 .debug_frame   0x0000134c       0x6c build/mcp9808/production/_ext/519814254/freertos_hooks.o
 .debug_frame   0x000013b8       0x64 build/mcp9808/production/_ext/519814254/tasks.o
 .debug_frame   0x0000141c       0x70 build/mcp9808/production/_ext/519814254/exceptions.o
 .debug_frame   0x0000148c       0xe8 build/mcp9808/production/_ext/246609638/port.o
 .debug_frame   0x00001574       0x5c build/mcp9808/production/_ext/1665200909/heap_1.o
 .debug_frame   0x000015d0      0x29c build/mcp9808/production/_ext/404212886/queue.o
 .debug_frame   0x0000186c      0x4a0 build/mcp9808/production/_ext/404212886/FreeRTOS_tasks.o
 .debug_frame   0x00001d0c       0x6c build/mcp9808/production/_ext/404212886/list.o
 .debug_frame   0x00001d78       0x28 build/mcp9808/production/_ext/1360937237/main.o
 .debug_frame   0x00001da0       0x8c build/mcp9808/production/_ext/1360937237/app_mcp9808.o
 .debug_frame   0x00001e2c       0x20 c:/program files/microchip/xc32/v4.20/bin/bin/../../lib/gcc/pic32c/8.3.1/../../../../pic32c/lib/thumb/v7e-m+fp/hard\libpic32c.a(data_init_wrapper.o)
 .debug_frame   0x00001e4c       0x2c c:/program files/microchip/xc32/v4.20/bin/bin/../../lib/gcc/pic32c/8.3.1/../../../../pic32c/lib/thumb/v7e-m+fp/hard\libpic32c.a(data_init_0_1.o)
 .debug_frame   0x00001e78       0x3c c:/program files/microchip/xc32/v4.20/bin/bin/../../lib/gcc/pic32c/8.3.1/../../../../pic32c/lib/thumb/v7e-m+fp/hard\libc-musl.a(__libc_start_main.o)
 .debug_frame   0x00001eb4      0x150 c:/program files/microchip/xc32/v4.20/bin/bin/../../lib/gcc/pic32c/8.3.1/../../../../pic32c/lib/thumb/v7e-m+fp/hard\libc-musl.a(malloc.o)
 .debug_frame   0x00002004       0x38 c:/program files/microchip/xc32/v4.20/bin/bin/../../lib/gcc/pic32c/8.3.1/../../../../pic32c/lib/thumb/v7e-m+fp/hard\libc-musl.a(vsnprintf.o)
 .debug_frame   0x0000203c       0x28 c:/program files/microchip/xc32/v4.20/bin/bin/../../lib/gcc/pic32c/8.3.1/../../../../pic32c/lib/thumb/v7e-m+fp/hard\libc-musl.a(puts.o)
 .debug_frame   0x00002064       0x3c c:/program files/microchip/xc32/v4.20/bin/bin/../../lib/gcc/pic32c/8.3.1/../../../../pic32c/lib/thumb/v7e-m+fp/hard\libc-musl.a(sprintf.o)
 .debug_frame   0x000020a0       0x20 c:/program files/microchip/xc32/v4.20/bin/bin/../../lib/gcc/pic32c/8.3.1/../../../../pic32c/lib/thumb/v7e-m+fp/hard\libc-musl.a(vsprintf.o)
 .debug_frame   0x000020c0       0x28 c:/program files/microchip/xc32/v4.20/bin/bin/../../lib/gcc/pic32c/8.3.1/../../../../pic32c/lib/thumb/v7e-m+fp/hard\libc-musl.a(memcpy.o)
 .debug_frame   0x000020e8       0x20 c:/program files/microchip/xc32/v4.20/bin/bin/../../lib/gcc/pic32c/8.3.1/../../../../pic32c/lib/thumb/v7e-m+fp/hard\libc-musl.a(memset.o)
 .debug_frame   0x00002108       0x20 c:/program files/microchip/xc32/v4.20/bin/bin/../../lib/gcc/pic32c/8.3.1/../../../../pic32c/lib/thumb/v7e-m+fp/hard\libc-musl.a(strlen.o)
 .debug_frame   0x00002128       0x28 c:/program files/microchip/xc32/v4.20/bin/bin/../../lib/gcc/pic32c/8.3.1/../../../../pic32c/lib/thumb/v7e-m+fp/hard\libc-musl.a(strchr.o)
 .debug_frame   0x00002150       0x30 c:/program files/microchip/xc32/v4.20/bin/bin/../../lib/gcc/pic32c/8.3.1/../../../../pic32c/lib/thumb/v7e-m+fp/hard\libc-musl.a(strchrnul.o)
 .debug_frame   0x00002180       0x28 c:/program files/microchip/xc32/v4.20/bin/bin/../../lib/gcc/pic32c/8.3.1/../../../../pic32c/lib/thumb/v7e-m+fp/hard\libc-musl.a(strcmp.o)
 .debug_frame   0x000021a8       0x28 c:/program files/microchip/xc32/v4.20/bin/bin/../../lib/gcc/pic32c/8.3.1/../../../../pic32c/lib/thumb/v7e-m+fp/hard\libc-musl.a(strcpy.o)
 .debug_frame   0x000021d0       0x2c c:/program files/microchip/xc32/v4.20/bin/bin/../../lib/gcc/pic32c/8.3.1/../../../../pic32c/lib/thumb/v7e-m+fp/hard\libc-musl.a(strncmp.o)
 .debug_frame   0x000021fc       0x28 c:/program files/microchip/xc32/v4.20/bin/bin/../../lib/gcc/pic32c/8.3.1/../../../../pic32c/lib/thumb/v7e-m+fp/hard\libc-musl.a(strncpy.o)
 .debug_frame   0x00002224       0x2c c:/program files/microchip/xc32/v4.20/bin/bin/../../lib/gcc/pic32c/8.3.1/../../../../pic32c/lib/thumb/v7e-m+fp/hard\libc-musl.a(strtok.o)
 .debug_frame   0x00002250       0x2c c:/program files/microchip/xc32/v4.20/bin/bin/../../lib/gcc/pic32c/8.3.1/../../../../pic32c/lib/thumb/v7e-m+fp/hard\libc-musl.a(fputs.o)
 .debug_frame   0x0000227c       0x3c c:/program files/microchip/xc32/v4.20/bin/bin/../../lib/gcc/pic32c/8.3.1/../../../../pic32c/lib/thumb/v7e-m+fp/hard\libc-musl.a(fwrite.o)
 .debug_frame   0x000022b8       0x54 c:/program files/microchip/xc32/v4.20/bin/bin/../../lib/gcc/pic32c/8.3.1/../../../../pic32c/lib/thumb/v7e-m+fp/hard\libc-musl.a(putc.o)
 .debug_frame   0x0000230c       0x48 c:/program files/microchip/xc32/v4.20/bin/bin/../../lib/gcc/pic32c/8.3.1/../../../../pic32c/lib/thumb/v7e-m+fp/hard\libc-musl.a(stdout.o)
 .debug_frame   0x00002354       0x3c c:/program files/microchip/xc32/v4.20/bin/bin/../../lib/gcc/pic32c/8.3.1/../../../../pic32c/lib/thumb/v7e-m+fp/hard\libc-musl.a(vfprintf.o)
 .debug_frame   0x00002390       0x20 c:/program files/microchip/xc32/v4.20/bin/bin/../../lib/gcc/pic32c/8.3.1/../../../../pic32c/lib/thumb/v7e-m+fp/hard\libc-musl.a(stpcpy.o)
 .debug_frame   0x000023b0       0x28 c:/program files/microchip/xc32/v4.20/bin/bin/../../lib/gcc/pic32c/8.3.1/../../../../pic32c/lib/thumb/v7e-m+fp/hard\libc-musl.a(stpncpy.o)
 .debug_frame   0x000023d8       0x34 c:/program files/microchip/xc32/v4.20/bin/bin/../../lib/gcc/pic32c/8.3.1/../../../../pic32c/lib/thumb/v7e-m+fp/hard\libc-musl.a(strcspn.o)
 .debug_frame   0x0000240c       0x34 c:/program files/microchip/xc32/v4.20/bin/bin/../../lib/gcc/pic32c/8.3.1/../../../../pic32c/lib/thumb/v7e-m+fp/hard\libc-musl.a(strspn.o)
 .debug_frame   0x00002440       0x3c c:/program files/microchip/xc32/v4.20/bin/bin/../../lib/gcc/pic32c/8.3.1/../../../../pic32c/lib/thumb/v7e-m+fp/hard\libc-musl.a(__out.o)
 .debug_frame   0x0000247c       0x20 c:/program files/microchip/xc32/v4.20/bin/bin/../../lib/gcc/pic32c/8.3.1/../../../../pic32c/lib/thumb/v7e-m+fp/hard\libc-musl.a(__pop_float.o)
 .debug_frame   0x0000249c       0x28 c:/program files/microchip/xc32/v4.20/bin/bin/../../lib/gcc/pic32c/8.3.1/../../../../pic32c/lib/thumb/v7e-m+fp/hard\libc-musl.a(__pop_int.o)
 .debug_frame   0x000024c4       0x28 c:/program files/microchip/xc32/v4.20/bin/bin/../../lib/gcc/pic32c/8.3.1/../../../../pic32c/lib/thumb/v7e-m+fp/hard\libc-musl.a(__pop_ptr.o)
 .debug_frame   0x000024ec       0xd8 c:/program files/microchip/xc32/v4.20/bin/bin/../../lib/gcc/pic32c/8.3.1/../../../../pic32c/lib/thumb/v7e-m+fp/hard\libc-musl.a(__printf_core.o)
 .debug_frame   0x000025c4       0x28 c:/program files/microchip/xc32/v4.20/bin/bin/../../lib/gcc/pic32c/8.3.1/../../../../pic32c/lib/thumb/v7e-m+fp/hard\libc-musl.a(atoi.o)
 .debug_frame   0x000025ec       0x30 c:/program files/microchip/xc32/v4.20/bin/bin/../../lib/gcc/pic32c/8.3.1/../../../../pic32c/lib/thumb/v7e-m+fp/hard\libc-musl.a(tolower.o)
 .debug_frame   0x0000261c       0x40 c:/program files/microchip/xc32/v4.20/bin/bin/../../lib/gcc/pic32c/8.3.1/../../../../pic32c/lib/thumb/v7e-m+fp/hard\libc-musl.a(__fmt_a.o)
 .debug_frame   0x0000265c       0x3c c:/program files/microchip/xc32/v4.20/bin/bin/../../lib/gcc/pic32c/8.3.1/../../../../pic32c/lib/thumb/v7e-m+fp/hard\libc-musl.a(__fmt_d.o)
 .debug_frame   0x00002698       0x50 c:/program files/microchip/xc32/v4.20/bin/bin/../../lib/gcc/pic32c/8.3.1/../../../../pic32c/lib/thumb/v7e-m+fp/hard\libc-musl.a(__fmt_fp.o)
 .debug_frame   0x000026e8       0x34 c:/program files/microchip/xc32/v4.20/bin/bin/../../lib/gcc/pic32c/8.3.1/../../../../pic32c/lib/thumb/v7e-m+fp/hard\libc-musl.a(__fmt_o.o)
 .debug_frame   0x0000271c       0x34 c:/program files/microchip/xc32/v4.20/bin/bin/../../lib/gcc/pic32c/8.3.1/../../../../pic32c/lib/thumb/v7e-m+fp/hard\libc-musl.a(__fmt_s.o)
 .debug_frame   0x00002750       0x5c c:/program files/microchip/xc32/v4.20/bin/bin/../../lib/gcc/pic32c/8.3.1/../../../../pic32c/lib/thumb/v7e-m+fp/hard\libc-musl.a(__fmt_u.o)
 .debug_frame   0x000027ac       0x40 c:/program files/microchip/xc32/v4.20/bin/bin/../../lib/gcc/pic32c/8.3.1/../../../../pic32c/lib/thumb/v7e-m+fp/hard\libc-musl.a(__fmt_x.o)
 .debug_frame   0x000027ec       0x38 c:/program files/microchip/xc32/v4.20/bin/bin/../../lib/gcc/pic32c/8.3.1/../../../../pic32c/lib/thumb/v7e-m+fp/hard\libc-musl.a(__init_stdio.o)
 .debug_frame   0x00002824       0x30 c:/program files/microchip/xc32/v4.20/bin/bin/../../lib/gcc/pic32c/8.3.1/../../../../pic32c/lib/thumb/v7e-m+fp/hard\libc-musl.a(toupper.o)
 .debug_frame   0x00002854       0x2c c:/program files/microchip/xc32/v4.20/bin/bin/../../lib/gcc/pic32c/8.3.1/thumb/v7e-m+fp/hard\libgcc.a(_aeabi_uldivmod.o)
 .debug_frame   0x00002880       0x38 c:/program files/microchip/xc32/v4.20/bin/bin/../../lib/gcc/pic32c/8.3.1/thumb/v7e-m+fp/hard\libgcc.a(_udivmoddi4.o)

.debug_loc      0x00000000    0x12721
 .debug_loc     0x00000000      0xf80 build/mcp9808/production/_ext/1243884746/drv_mcp9808.o
 .debug_loc     0x00000f80     0x1982 build/mcp9808/production/_ext/136144951/drv_i2c.o
 .debug_loc     0x00002902      0x727 build/mcp9808/production/_ext/1820763632/osal_freertos.o
 .debug_loc     0x00003029      0x2c0 build/mcp9808/production/_ext/1324973556/plib_nvic.o
 .debug_loc     0x000032e9      0x868 build/mcp9808/production/_ext/1541565758/plib_nvmctrl.o
 .debug_loc     0x00003b51      0x1e8 build/mcp9808/production/_ext/1325026707/plib_port.o
 .debug_loc     0x00003d39      0xd1a build/mcp9808/production/_ext/1646999677/plib_sercom6_i2c_master.o
 .debug_loc     0x00004a53      0xd41 build/mcp9808/production/_ext/1027107927/plib_sercom1_usart.o
 .debug_loc     0x00005794       0x4a build/mcp9808/production/_ext/605370968/xc32_monitor.o
 .debug_loc     0x000057de     0x19de build/mcp9808/production/_ext/1427623807/sys_command.o
 .debug_loc     0x000071bc      0xc61 build/mcp9808/production/_ext/1884335987/sys_console.o
 .debug_loc     0x00007e1d      0x93a build/mcp9808/production/_ext/1884335987/sys_console_uart.o
 .debug_loc     0x00008757      0x182 build/mcp9808/production/_ext/1587138469/sys_int.o
 .debug_loc     0x000088d9       0x4a build/mcp9808/production/_ext/519814254/startup_xc32.o
 .debug_loc     0x00008923       0x45 build/mcp9808/production/_ext/519814254/initialization.o
 .debug_loc     0x00008968       0x82 build/mcp9808/production/_ext/519814254/freertos_hooks.o
 .debug_loc     0x000089ea       0xc2 build/mcp9808/production/_ext/519814254/tasks.o
 .debug_loc     0x00008aac      0x13a build/mcp9808/production/_ext/246609638/port.o
 .debug_loc     0x00008be6       0x8f build/mcp9808/production/_ext/1665200909/heap_1.o
 .debug_loc     0x00008c75     0x191e build/mcp9808/production/_ext/404212886/queue.o
 .debug_loc     0x0000a593     0x2565 build/mcp9808/production/_ext/404212886/FreeRTOS_tasks.o
 .debug_loc     0x0000caf8       0xb2 build/mcp9808/production/_ext/404212886/list.o
 .debug_loc     0x0000cbaa       0x20 build/mcp9808/production/_ext/1360937237/main.o
 .debug_loc     0x0000cbca       0xd0 build/mcp9808/production/_ext/1360937237/app_mcp9808.o
 .debug_loc     0x0000cc9a       0x14 c:/program files/microchip/xc32/v4.20/bin/bin/../../lib/gcc/pic32c/8.3.1/../../../../pic32c/lib/thumb/v7e-m+fp/hard\libpic32c.a(data_init_0_1.o)
 .debug_loc     0x0000ccae       0x51 c:/program files/microchip/xc32/v4.20/bin/bin/../../lib/gcc/pic32c/8.3.1/../../../../pic32c/lib/thumb/v7e-m+fp/hard\libc-musl.a(__libc_start_main.o)
 .debug_loc     0x0000ccff      0xccd c:/program files/microchip/xc32/v4.20/bin/bin/../../lib/gcc/pic32c/8.3.1/../../../../pic32c/lib/thumb/v7e-m+fp/hard\libc-musl.a(malloc.o)
 .debug_loc     0x0000d9cc       0xeb c:/program files/microchip/xc32/v4.20/bin/bin/../../lib/gcc/pic32c/8.3.1/../../../../pic32c/lib/thumb/v7e-m+fp/hard\libc-musl.a(vsnprintf.o)
 .debug_loc     0x0000dab7       0x6a c:/program files/microchip/xc32/v4.20/bin/bin/../../lib/gcc/pic32c/8.3.1/../../../../pic32c/lib/thumb/v7e-m+fp/hard\libc-musl.a(puts.o)
 .debug_loc     0x0000db21       0x8a c:/program files/microchip/xc32/v4.20/bin/bin/../../lib/gcc/pic32c/8.3.1/../../../../pic32c/lib/thumb/v7e-m+fp/hard\libc-musl.a(sprintf.o)
 .debug_loc     0x0000dbab       0x6c c:/program files/microchip/xc32/v4.20/bin/bin/../../lib/gcc/pic32c/8.3.1/../../../../pic32c/lib/thumb/v7e-m+fp/hard\libc-musl.a(vsprintf.o)
 .debug_loc     0x0000dc17       0xe5 c:/program files/microchip/xc32/v4.20/bin/bin/../../lib/gcc/pic32c/8.3.1/../../../../pic32c/lib/thumb/v7e-m+fp/hard\libc-musl.a(memcpy.o)
 .debug_loc     0x0000dcfc       0x56 c:/program files/microchip/xc32/v4.20/bin/bin/../../lib/gcc/pic32c/8.3.1/../../../../pic32c/lib/thumb/v7e-m+fp/hard\libc-musl.a(memset.o)
 .debug_loc     0x0000dd52       0x47 c:/program files/microchip/xc32/v4.20/bin/bin/../../lib/gcc/pic32c/8.3.1/../../../../pic32c/lib/thumb/v7e-m+fp/hard\libc-musl.a(strlen.o)
 .debug_loc     0x0000dd99       0x8c c:/program files/microchip/xc32/v4.20/bin/bin/../../lib/gcc/pic32c/8.3.1/../../../../pic32c/lib/thumb/v7e-m+fp/hard\libc-musl.a(strchr.o)
 .debug_loc     0x0000de25      0x11a c:/program files/microchip/xc32/v4.20/bin/bin/../../lib/gcc/pic32c/8.3.1/../../../../pic32c/lib/thumb/v7e-m+fp/hard\libc-musl.a(strchrnul.o)
 .debug_loc     0x0000df3f       0x96 c:/program files/microchip/xc32/v4.20/bin/bin/../../lib/gcc/pic32c/8.3.1/../../../../pic32c/lib/thumb/v7e-m+fp/hard\libc-musl.a(strcmp.o)
 .debug_loc     0x0000dfd5       0x67 c:/program files/microchip/xc32/v4.20/bin/bin/../../lib/gcc/pic32c/8.3.1/../../../../pic32c/lib/thumb/v7e-m+fp/hard\libc-musl.a(strcpy.o)
 .debug_loc     0x0000e03c      0x1b1 c:/program files/microchip/xc32/v4.20/bin/bin/../../lib/gcc/pic32c/8.3.1/../../../../pic32c/lib/thumb/v7e-m+fp/hard\libc-musl.a(strncmp.o)
 .debug_loc     0x0000e1ed       0x8c c:/program files/microchip/xc32/v4.20/bin/bin/../../lib/gcc/pic32c/8.3.1/../../../../pic32c/lib/thumb/v7e-m+fp/hard\libc-musl.a(strncpy.o)
 .debug_loc     0x0000e279       0x71 c:/program files/microchip/xc32/v4.20/bin/bin/../../lib/gcc/pic32c/8.3.1/../../../../pic32c/lib/thumb/v7e-m+fp/hard\libc-musl.a(strtok.o)
 .debug_loc     0x0000e2ea       0x93 c:/program files/microchip/xc32/v4.20/bin/bin/../../lib/gcc/pic32c/8.3.1/../../../../pic32c/lib/thumb/v7e-m+fp/hard\libc-musl.a(fputs.o)
 .debug_loc     0x0000e37d      0x17e c:/program files/microchip/xc32/v4.20/bin/bin/../../lib/gcc/pic32c/8.3.1/../../../../pic32c/lib/thumb/v7e-m+fp/hard\libc-musl.a(fwrite.o)
 .debug_loc     0x0000e4fb      0x123 c:/program files/microchip/xc32/v4.20/bin/bin/../../lib/gcc/pic32c/8.3.1/../../../../pic32c/lib/thumb/v7e-m+fp/hard\libc-musl.a(putc.o)
 .debug_loc     0x0000e61e       0x20 c:/program files/microchip/xc32/v4.20/bin/bin/../../lib/gcc/pic32c/8.3.1/../../../../pic32c/lib/thumb/v7e-m+fp/hard\libc-musl.a(stdout.o)
 .debug_loc     0x0000e63e       0x88 c:/program files/microchip/xc32/v4.20/bin/bin/../../lib/gcc/pic32c/8.3.1/../../../../pic32c/lib/thumb/v7e-m+fp/hard\libc-musl.a(vfprintf.o)
 .debug_loc     0x0000e6c6       0x60 c:/program files/microchip/xc32/v4.20/bin/bin/../../lib/gcc/pic32c/8.3.1/../../../../pic32c/lib/thumb/v7e-m+fp/hard\libc-musl.a(stpcpy.o)
 .debug_loc     0x0000e726      0x15b c:/program files/microchip/xc32/v4.20/bin/bin/../../lib/gcc/pic32c/8.3.1/../../../../pic32c/lib/thumb/v7e-m+fp/hard\libc-musl.a(stpncpy.o)
 .debug_loc     0x0000e881      0x13d c:/program files/microchip/xc32/v4.20/bin/bin/../../lib/gcc/pic32c/8.3.1/../../../../pic32c/lib/thumb/v7e-m+fp/hard\libc-musl.a(strcspn.o)
 .debug_loc     0x0000e9be      0x13f c:/program files/microchip/xc32/v4.20/bin/bin/../../lib/gcc/pic32c/8.3.1/../../../../pic32c/lib/thumb/v7e-m+fp/hard\libc-musl.a(strspn.o)
 .debug_loc     0x0000eafd      0x1a8 c:/program files/microchip/xc32/v4.20/bin/bin/../../lib/gcc/pic32c/8.3.1/../../../../pic32c/lib/thumb/v7e-m+fp/hard\libc-musl.a(__out.o)
 .debug_loc     0x0000eca5       0xa6 c:/program files/microchip/xc32/v4.20/bin/bin/../../lib/gcc/pic32c/8.3.1/../../../../pic32c/lib/thumb/v7e-m+fp/hard\libc-musl.a(__pop_float.o)
 .debug_loc     0x0000ed4b      0x2f5 c:/program files/microchip/xc32/v4.20/bin/bin/../../lib/gcc/pic32c/8.3.1/../../../../pic32c/lib/thumb/v7e-m+fp/hard\libc-musl.a(__pop_int.o)
 .debug_loc     0x0000f040      0x1db c:/program files/microchip/xc32/v4.20/bin/bin/../../lib/gcc/pic32c/8.3.1/../../../../pic32c/lib/thumb/v7e-m+fp/hard\libc-musl.a(__pop_ptr.o)
 .debug_loc     0x0000f21b      0x5e9 c:/program files/microchip/xc32/v4.20/bin/bin/../../lib/gcc/pic32c/8.3.1/../../../../pic32c/lib/thumb/v7e-m+fp/hard\libc-musl.a(__printf_core.o)
 .debug_loc     0x0000f804       0xd8 c:/program files/microchip/xc32/v4.20/bin/bin/../../lib/gcc/pic32c/8.3.1/../../../../pic32c/lib/thumb/v7e-m+fp/hard\libc-musl.a(atoi.o)
 .debug_loc     0x0000f8dc       0x4a c:/program files/microchip/xc32/v4.20/bin/bin/../../lib/gcc/pic32c/8.3.1/../../../../pic32c/lib/thumb/v7e-m+fp/hard\libc-musl.a(tolower.o)
 .debug_loc     0x0000f926      0xb20 c:/program files/microchip/xc32/v4.20/bin/bin/../../lib/gcc/pic32c/8.3.1/../../../../pic32c/lib/thumb/v7e-m+fp/hard\libc-musl.a(__fmt_a.o)
 .debug_loc     0x00010446      0x1ef c:/program files/microchip/xc32/v4.20/bin/bin/../../lib/gcc/pic32c/8.3.1/../../../../pic32c/lib/thumb/v7e-m+fp/hard\libc-musl.a(__fmt_d.o)
 .debug_loc     0x00010635      0xa5d c:/program files/microchip/xc32/v4.20/bin/bin/../../lib/gcc/pic32c/8.3.1/../../../../pic32c/lib/thumb/v7e-m+fp/hard\libc-musl.a(__fmt_fp.o)
 .debug_loc     0x00011092      0x10a c:/program files/microchip/xc32/v4.20/bin/bin/../../lib/gcc/pic32c/8.3.1/../../../../pic32c/lib/thumb/v7e-m+fp/hard\libc-musl.a(__fmt_o.o)
 .debug_loc     0x0001119c      0x157 c:/program files/microchip/xc32/v4.20/bin/bin/../../lib/gcc/pic32c/8.3.1/../../../../pic32c/lib/thumb/v7e-m+fp/hard\libc-musl.a(__fmt_s.o)
 .debug_loc     0x000112f3      0x2a2 c:/program files/microchip/xc32/v4.20/bin/bin/../../lib/gcc/pic32c/8.3.1/../../../../pic32c/lib/thumb/v7e-m+fp/hard\libc-musl.a(__fmt_u.o)
 .debug_loc     0x00011595      0x2a9 c:/program files/microchip/xc32/v4.20/bin/bin/../../lib/gcc/pic32c/8.3.1/../../../../pic32c/lib/thumb/v7e-m+fp/hard\libc-musl.a(__fmt_x.o)
 .debug_loc     0x0001183e       0x20 c:/program files/microchip/xc32/v4.20/bin/bin/../../lib/gcc/pic32c/8.3.1/../../../../pic32c/lib/thumb/v7e-m+fp/hard\libc-musl.a(__init_stdio.o)
 .debug_loc     0x0001185e       0x4a c:/program files/microchip/xc32/v4.20/bin/bin/../../lib/gcc/pic32c/8.3.1/../../../../pic32c/lib/thumb/v7e-m+fp/hard\libc-musl.a(toupper.o)
 .debug_loc     0x000118a8      0xe79 c:/program files/microchip/xc32/v4.20/bin/bin/../../lib/gcc/pic32c/8.3.1/thumb/v7e-m+fp/hard\libgcc.a(_udivmoddi4.o)

.note.GNU-stack
                0x00000000        0x0
 .note.GNU-stack
                0x00000000        0x0 c:/program files/microchip/xc32/v4.20/bin/bin/../../lib/gcc/pic32c/8.3.1/../../../../pic32c/lib/thumb/v7e-m+fp/hard\libc-musl.a(__libc_start_main.o)
 .note.GNU-stack
                0x00000000        0x0 c:/program files/microchip/xc32/v4.20/bin/bin/../../lib/gcc/pic32c/8.3.1/../../../../pic32c/lib/thumb/v7e-m+fp/hard\libc-musl.a(libc.o)
 .note.GNU-stack
                0x00000000        0x0 c:/program files/microchip/xc32/v4.20/bin/bin/../../lib/gcc/pic32c/8.3.1/../../../../pic32c/lib/thumb/v7e-m+fp/hard\libc-musl.a(malloc.o)
 .note.GNU-stack
                0x00000000        0x0 c:/program files/microchip/xc32/v4.20/bin/bin/../../lib/gcc/pic32c/8.3.1/../../../../pic32c/lib/thumb/v7e-m+fp/hard\libc-musl.a(vsnprintf.o)
 .note.GNU-stack
                0x00000000        0x0 c:/program files/microchip/xc32/v4.20/bin/bin/../../lib/gcc/pic32c/8.3.1/../../../../pic32c/lib/thumb/v7e-m+fp/hard\libc-musl.a(puts.o)
 .note.GNU-stack
                0x00000000        0x0 c:/program files/microchip/xc32/v4.20/bin/bin/../../lib/gcc/pic32c/8.3.1/../../../../pic32c/lib/thumb/v7e-m+fp/hard\libc-musl.a(sprintf.o)
 .note.GNU-stack
                0x00000000        0x0 c:/program files/microchip/xc32/v4.20/bin/bin/../../lib/gcc/pic32c/8.3.1/../../../../pic32c/lib/thumb/v7e-m+fp/hard\libc-musl.a(vsprintf.o)
 .note.GNU-stack
                0x00000000        0x0 c:/program files/microchip/xc32/v4.20/bin/bin/../../lib/gcc/pic32c/8.3.1/../../../../pic32c/lib/thumb/v7e-m+fp/hard\libc-musl.a(memcpy.o)
 .note.GNU-stack
                0x00000000        0x0 c:/program files/microchip/xc32/v4.20/bin/bin/../../lib/gcc/pic32c/8.3.1/../../../../pic32c/lib/thumb/v7e-m+fp/hard\libc-musl.a(memset.o)
 .note.GNU-stack
                0x00000000        0x0 c:/program files/microchip/xc32/v4.20/bin/bin/../../lib/gcc/pic32c/8.3.1/../../../../pic32c/lib/thumb/v7e-m+fp/hard\libc-musl.a(strlen.o)
 .note.GNU-stack
                0x00000000        0x0 c:/program files/microchip/xc32/v4.20/bin/bin/../../lib/gcc/pic32c/8.3.1/../../../../pic32c/lib/thumb/v7e-m+fp/hard\libc-musl.a(strchr.o)
 .note.GNU-stack
                0x00000000        0x0 c:/program files/microchip/xc32/v4.20/bin/bin/../../lib/gcc/pic32c/8.3.1/../../../../pic32c/lib/thumb/v7e-m+fp/hard\libc-musl.a(strchrnul.o)
 .note.GNU-stack
                0x00000000        0x0 c:/program files/microchip/xc32/v4.20/bin/bin/../../lib/gcc/pic32c/8.3.1/../../../../pic32c/lib/thumb/v7e-m+fp/hard\libc-musl.a(strcmp.o)
 .note.GNU-stack
                0x00000000        0x0 c:/program files/microchip/xc32/v4.20/bin/bin/../../lib/gcc/pic32c/8.3.1/../../../../pic32c/lib/thumb/v7e-m+fp/hard\libc-musl.a(strcpy.o)
 .note.GNU-stack
                0x00000000        0x0 c:/program files/microchip/xc32/v4.20/bin/bin/../../lib/gcc/pic32c/8.3.1/../../../../pic32c/lib/thumb/v7e-m+fp/hard\libc-musl.a(strncmp.o)
 .note.GNU-stack
                0x00000000        0x0 c:/program files/microchip/xc32/v4.20/bin/bin/../../lib/gcc/pic32c/8.3.1/../../../../pic32c/lib/thumb/v7e-m+fp/hard\libc-musl.a(strncpy.o)
 .note.GNU-stack
                0x00000000        0x0 c:/program files/microchip/xc32/v4.20/bin/bin/../../lib/gcc/pic32c/8.3.1/../../../../pic32c/lib/thumb/v7e-m+fp/hard\libc-musl.a(strtok.o)
 .note.GNU-stack
                0x00000000        0x0 c:/program files/microchip/xc32/v4.20/bin/bin/../../lib/gcc/pic32c/8.3.1/../../../../pic32c/lib/thumb/v7e-m+fp/hard\libc-musl.a(__environ.o)
 .note.GNU-stack
                0x00000000        0x0 c:/program files/microchip/xc32/v4.20/bin/bin/../../lib/gcc/pic32c/8.3.1/../../../../pic32c/lib/thumb/v7e-m+fp/hard\libc-musl.a(__errno_location.o)
 .note.GNU-stack
                0x00000000        0x0 c:/program files/microchip/xc32/v4.20/bin/bin/../../lib/gcc/pic32c/8.3.1/../../../../pic32c/lib/thumb/v7e-m+fp/hard\libc-musl.a(fputs.o)
 .note.GNU-stack
                0x00000000        0x0 c:/program files/microchip/xc32/v4.20/bin/bin/../../lib/gcc/pic32c/8.3.1/../../../../pic32c/lib/thumb/v7e-m+fp/hard\libc-musl.a(fwrite.o)
 .note.GNU-stack
                0x00000000        0x0 c:/program files/microchip/xc32/v4.20/bin/bin/../../lib/gcc/pic32c/8.3.1/../../../../pic32c/lib/thumb/v7e-m+fp/hard\libc-musl.a(putc.o)
 .note.GNU-stack
                0x00000000        0x0 c:/program files/microchip/xc32/v4.20/bin/bin/../../lib/gcc/pic32c/8.3.1/../../../../pic32c/lib/thumb/v7e-m+fp/hard\libc-musl.a(stdout.o)
 .note.GNU-stack
                0x00000000        0x0 c:/program files/microchip/xc32/v4.20/bin/bin/../../lib/gcc/pic32c/8.3.1/../../../../pic32c/lib/thumb/v7e-m+fp/hard\libc-musl.a(vfprintf.o)
 .note.GNU-stack
                0x00000000        0x0 c:/program files/microchip/xc32/v4.20/bin/bin/../../lib/gcc/pic32c/8.3.1/../../../../pic32c/lib/thumb/v7e-m+fp/hard\libc-musl.a(stpcpy.o)
 .note.GNU-stack
                0x00000000        0x0 c:/program files/microchip/xc32/v4.20/bin/bin/../../lib/gcc/pic32c/8.3.1/../../../../pic32c/lib/thumb/v7e-m+fp/hard\libc-musl.a(stpncpy.o)
 .note.GNU-stack
                0x00000000        0x0 c:/program files/microchip/xc32/v4.20/bin/bin/../../lib/gcc/pic32c/8.3.1/../../../../pic32c/lib/thumb/v7e-m+fp/hard\libc-musl.a(strcspn.o)
 .note.GNU-stack
                0x00000000        0x0 c:/program files/microchip/xc32/v4.20/bin/bin/../../lib/gcc/pic32c/8.3.1/../../../../pic32c/lib/thumb/v7e-m+fp/hard\libc-musl.a(strspn.o)
 .note.GNU-stack
                0x00000000        0x0 c:/program files/microchip/xc32/v4.20/bin/bin/../../lib/gcc/pic32c/8.3.1/../../../../pic32c/lib/thumb/v7e-m+fp/hard\libc-musl.a(__out.o)
 .note.GNU-stack
                0x00000000        0x0 c:/program files/microchip/xc32/v4.20/bin/bin/../../lib/gcc/pic32c/8.3.1/../../../../pic32c/lib/thumb/v7e-m+fp/hard\libc-musl.a(__pop_float.o)
 .note.GNU-stack
                0x00000000        0x0 c:/program files/microchip/xc32/v4.20/bin/bin/../../lib/gcc/pic32c/8.3.1/../../../../pic32c/lib/thumb/v7e-m+fp/hard\libc-musl.a(__pop_int.o)
 .note.GNU-stack
                0x00000000        0x0 c:/program files/microchip/xc32/v4.20/bin/bin/../../lib/gcc/pic32c/8.3.1/../../../../pic32c/lib/thumb/v7e-m+fp/hard\libc-musl.a(__pop_ptr.o)
 .note.GNU-stack
                0x00000000        0x0 c:/program files/microchip/xc32/v4.20/bin/bin/../../lib/gcc/pic32c/8.3.1/../../../../pic32c/lib/thumb/v7e-m+fp/hard\libc-musl.a(__printf_core.o)
 .note.GNU-stack
                0x00000000        0x0 c:/program files/microchip/xc32/v4.20/bin/bin/../../lib/gcc/pic32c/8.3.1/../../../../pic32c/lib/thumb/v7e-m+fp/hard\libc-musl.a(atoi.o)
 .note.GNU-stack
                0x00000000        0x0 c:/program files/microchip/xc32/v4.20/bin/bin/../../lib/gcc/pic32c/8.3.1/../../../../pic32c/lib/thumb/v7e-m+fp/hard\libc-musl.a(tolower.o)
 .note.GNU-stack
                0x00000000        0x0 c:/program files/microchip/xc32/v4.20/bin/bin/../../lib/gcc/pic32c/8.3.1/../../../../pic32c/lib/thumb/v7e-m+fp/hard\libc-musl.a(__fmt_a.o)
 .note.GNU-stack
                0x00000000        0x0 c:/program files/microchip/xc32/v4.20/bin/bin/../../lib/gcc/pic32c/8.3.1/../../../../pic32c/lib/thumb/v7e-m+fp/hard\libc-musl.a(__fmt_d.o)
 .note.GNU-stack
                0x00000000        0x0 c:/program files/microchip/xc32/v4.20/bin/bin/../../lib/gcc/pic32c/8.3.1/../../../../pic32c/lib/thumb/v7e-m+fp/hard\libc-musl.a(__fmt_fp.o)
 .note.GNU-stack
                0x00000000        0x0 c:/program files/microchip/xc32/v4.20/bin/bin/../../lib/gcc/pic32c/8.3.1/../../../../pic32c/lib/thumb/v7e-m+fp/hard\libc-musl.a(__fmt_o.o)
 .note.GNU-stack
                0x00000000        0x0 c:/program files/microchip/xc32/v4.20/bin/bin/../../lib/gcc/pic32c/8.3.1/../../../../pic32c/lib/thumb/v7e-m+fp/hard\libc-musl.a(__fmt_s.o)
 .note.GNU-stack
                0x00000000        0x0 c:/program files/microchip/xc32/v4.20/bin/bin/../../lib/gcc/pic32c/8.3.1/../../../../pic32c/lib/thumb/v7e-m+fp/hard\libc-musl.a(__fmt_u.o)
 .note.GNU-stack
                0x00000000        0x0 c:/program files/microchip/xc32/v4.20/bin/bin/../../lib/gcc/pic32c/8.3.1/../../../../pic32c/lib/thumb/v7e-m+fp/hard\libc-musl.a(__fmt_x.o)
 .note.GNU-stack
                0x00000000        0x0 c:/program files/microchip/xc32/v4.20/bin/bin/../../lib/gcc/pic32c/8.3.1/../../../../pic32c/lib/thumb/v7e-m+fp/hard\libc-musl.a(__init_stdio.o)
 .note.GNU-stack
                0x00000000        0x0 c:/program files/microchip/xc32/v4.20/bin/bin/../../lib/gcc/pic32c/8.3.1/../../../../pic32c/lib/thumb/v7e-m+fp/hard\libc-musl.a(toupper.o)

__xc_reference_data
                0x00000000       0x7c
 __xc_reference_data
                0x00000000        0x8 c:/program files/microchip/xc32/v4.20/bin/bin/../../lib/gcc/pic32c/8.3.1/../../../../pic32c/lib/thumb/v7e-m+fp/hard\libc-musl.a(putc.o)
                0x00000000                __putc_needs_out
 __xc_reference_data
                0x00000008        0x4 c:/program files/microchip/xc32/v4.20/bin/bin/../../lib/gcc/pic32c/8.3.1/../../../../pic32c/lib/thumb/v7e-m+fp/hard\libc-musl.a(stdout.o)
                0x00000008                __stdout_needs_init
 __xc_reference_data
                0x0000000c        0x4 c:/program files/microchip/xc32/v4.20/bin/bin/../../lib/gcc/pic32c/8.3.1/../../../../pic32c/lib/thumb/v7e-m+fp/hard\libc-musl.a(vfprintf.o)
                0x0000000c                __vfprintf_needs_fmt
 __xc_reference_data
                0x00000010       0x58 c:/program files/microchip/xc32/v4.20/bin/bin/../../lib/gcc/pic32c/8.3.1/../../../../pic32c/lib/thumb/v7e-m+fp/hard\libc-musl.a(__io_fmt_needed.o)
                0x00000010                __io_fmt_needed
 __xc_reference_data
                0x00000068        0xc c:/program files/microchip/xc32/v4.20/bin/bin/../../lib/gcc/pic32c/8.3.1/../../../../pic32c/lib/thumb/v7e-m+fp/hard\libc-musl.a(__io_init_needed.o)
                0x00000068                __io_init_needed
                0x00000070                __io_init_needs_file
 __xc_reference_data
                0x00000074        0x8 c:/program files/microchip/xc32/v4.20/bin/bin/../../lib/gcc/pic32c/8.3.1/../../../../pic32c/lib/thumb/v7e-m+fp/hard\libc-musl.a(__io_file_needed.o)
                0x00000074                __io_file_needed

.stack          0x2000b460      0x100
 .stack         0x2000b460      0x100 stack

.bss.ucHeap%1   0x20000000     0xa000
 .bss.ucHeap    0x20000000     0xa000 build/mcp9808/production/_ext/1665200909/heap_1.o

.bss.printBuff%2
                0x2000a000      0x800
 .bss.printBuff
                0x2000a000      0x800 build/mcp9808/production/_ext/1427623807/sys_command.o

.bss%3          0x2000a800      0x20c
 .bss           0x2000a800      0x20c c:/program files/microchip/xc32/v4.20/bin/bin/../../lib/gcc/pic32c/8.3.1/../../../../pic32c/lib/thumb/v7e-m+fp/hard\libc-musl.a(malloc.o)

.bss.SERCOM1_USART_ReadBuffer%4
                0x2000aa0c      0x100
 .bss.SERCOM1_USART_ReadBuffer
                0x2000aa0c      0x100 build/mcp9808/production/_ext/1027107927/plib_sercom1_usart.o

.bss.SERCOM1_USART_WriteBuffer%5
                0x2000ab0c      0x100
 .bss.SERCOM1_USART_WriteBuffer
                0x2000ab0c      0x100 build/mcp9808/production/_ext/1027107927/plib_sercom1_usart.o

.bss._usrCmdTbl%6
                0x2000ac0c       0x80
 .bss._usrCmdTbl
                0x2000ac0c       0x80 build/mcp9808/production/_ext/1427623807/sys_command.o

.bss.gDrvMCP98080ClientObjPool%7
                0x2000ac8c       0x68
 .bss.gDrvMCP98080ClientObjPool
                0x2000ac8c       0x68 build/mcp9808/production/_ext/519814254/initialization.o
                0x2000ac8c                gDrvMCP98080ClientObjPool

.bss.pxReadyTasksLists%8
                0x2000acf4       0x64
 .bss.pxReadyTasksLists
                0x2000acf4       0x64 build/mcp9808/production/_ext/404212886/FreeRTOS_tasks.o

.bss.drvI2C0TransferObj%9
                0x2000ad58       0x58
 .bss.drvI2C0TransferObj
                0x2000ad58       0x58 build/mcp9808/production/_ext/519814254/initialization.o

.bss%10         0x2000adb0       0x50
 .bss           0x2000adb0       0x50 c:/program files/microchip/xc32/v4.20/bin/bin/../../lib/gcc/pic32c/8.3.1/../../../../pic32c/lib/thumb/v7e-m+fp/hard\libc-musl.a(libc.o)
                0x2000adb0                __progname_full
                0x2000adb0                program_invocation_name
                0x2000adb4                program_invocation_short_name
                0x2000adb4                __progname
                0x2000adb8                __sysinfo
                0x2000adbc                __hwcap
                0x2000adc0                __libc

.bss.gDrvI2CObj%11
                0x2000ae00       0x44
 .bss.gDrvI2CObj
                0x2000ae00       0x44 build/mcp9808/production/_ext/136144951/drv_i2c.o

.bss.sercom1USARTObj%12
                0x2000ae44       0x40
 .bss.sercom1USARTObj
                0x2000ae44       0x40 build/mcp9808/production/_ext/1027107927/plib_sercom1_usart.o

.bss.sercom6I2CObj%13
                0x2000ae84       0x2c
 .bss.sercom6I2CObj
                0x2000ae84       0x2c build/mcp9808/production/_ext/1646999677/plib_sercom6_i2c_master.o

.bss%14         0x2000aeb0       0x1c
 .bss           0x2000aeb0       0x1c c:/program files/microchip/xc32/v4.20/bin/bin/../../lib/gcc/pic32c/8.3.1/thumb/v7e-m+fp/hard/crtbegin.o

.bss.gDrvTempSensorObj%15
                0x2000aecc       0x18
 .bss.gDrvTempSensorObj
                0x2000aecc       0x18 build/mcp9808/production/_ext/1243884746/drv_mcp9808.o
                0x2000aecc                gDrvTempSensorObj

.bss.gConsoleUartData%16
                0x2000aee4       0x18
 .bss.gConsoleUartData
                0x2000aee4       0x18 build/mcp9808/production/_ext/1884335987/sys_console_uart.o

.bss.drvI2C0ClientObjPool%17
                0x2000aefc       0x18
 .bss.drvI2C0ClientObjPool
                0x2000aefc       0x18 build/mcp9808/production/_ext/519814254/initialization.o

.bss.xDelayedTaskList1%18
                0x2000af14       0x14
 .bss.xDelayedTaskList1
                0x2000af14       0x14 build/mcp9808/production/_ext/404212886/FreeRTOS_tasks.o

.bss.xDelayedTaskList2%19
                0x2000af28       0x14
 .bss.xDelayedTaskList2
                0x2000af28       0x14 build/mcp9808/production/_ext/404212886/FreeRTOS_tasks.o

.bss.xPendingReadyList%20
                0x2000af3c       0x14
 .bss.xPendingReadyList
                0x2000af3c       0x14 build/mcp9808/production/_ext/404212886/FreeRTOS_tasks.o

.bss.xSuspendedTaskList%21
                0x2000af50       0x14
 .bss.xSuspendedTaskList
                0x2000af50       0x14 build/mcp9808/production/_ext/404212886/FreeRTOS_tasks.o

.bss.xTasksWaitingTermination%22
                0x2000af64       0x14
 .bss.xTasksWaitingTermination
                0x2000af64       0x14 build/mcp9808/production/_ext/404212886/FreeRTOS_tasks.o

.bss.appI0C1tempSensorData%23
                0x2000af78       0x14
 .bss.appI0C1tempSensorData
                0x2000af78       0x14 build/mcp9808/production/_ext/1360937237/app_mcp9808.o

.bss.consoleDeviceInstance%24
                0x2000af8c        0xc
 .bss.consoleDeviceInstance
                0x2000af8c        0xc build/mcp9808/production/_ext/1884335987/sys_console.o

.bss.cmdIODevList%25
                0x2000af98        0x8
 .bss.cmdIODevList
                0x2000af98        0x8 build/mcp9808/production/_ext/1427623807/sys_command.o

.bss.sysObj%26  0x2000afa0        0x8
 .bss.sysObj    0x2000afa0        0x8 build/mcp9808/production/_ext/519814254/initialization.o
                0x2000afa0                sysObj

.bss%27         0x2000afa8        0x8
 .bss           0x2000afa8        0x8 c:/program files/microchip/xc32/v4.20/bin/bin/../../lib/gcc/pic32c/8.3.1/../../../../pic32c/lib/thumb/v7e-m+fp/hard\libc-musl.a(stdout.o)
                0x2000afac                __stdout_used

.bss._cmdInitData%28
                0x2000afb0        0x4
 .bss._cmdInitData
                0x2000afb0        0x4 build/mcp9808/production/_ext/1427623807/sys_command.o

.bss.printBuffPtr%29
                0x2000afb4        0x4
 .bss.printBuffPtr
                0x2000afb4        0x4 build/mcp9808/production/_ext/1427623807/sys_command.o

.bss.consolePrintBufferMutex%30
                0x2000afb8        0x4
 .bss.consolePrintBufferMutex
                0x2000afb8        0x4 build/mcp9808/production/_ext/1884335987/sys_console.o

.bss.sysCmdInit%31
                0x2000afbc        0x4
 .bss.sysCmdInit
                0x2000afbc        0x4 build/mcp9808/production/_ext/519814254/initialization.o
                0x2000afbc                sysCmdInit

.bss.xAPP_MCP9808_Tasks%32
                0x2000afc0        0x4
 .bss.xAPP_MCP9808_Tasks
                0x2000afc0        0x4 build/mcp9808/production/_ext/519814254/tasks.o
                0x2000afc0                xAPP_MCP9808_Tasks

.bss.pucAlignedHeap.6181%33
                0x2000afc4        0x4
 .bss.pucAlignedHeap.6181
                0x2000afc4        0x4 build/mcp9808/production/_ext/1665200909/heap_1.o

.bss.xNextFreeByte%34
                0x2000afc8        0x4
 .bss.xNextFreeByte
                0x2000afc8        0x4 build/mcp9808/production/_ext/1665200909/heap_1.o

.bss.pxCurrentTCB%35
                0x2000afcc        0x4
 .bss.pxCurrentTCB
                0x2000afcc        0x4 build/mcp9808/production/_ext/404212886/FreeRTOS_tasks.o
                0x2000afcc                pxCurrentTCB

.bss.pxDelayedTaskList%36
                0x2000afd0        0x4
 .bss.pxDelayedTaskList
                0x2000afd0        0x4 build/mcp9808/production/_ext/404212886/FreeRTOS_tasks.o

.bss.pxOverflowDelayedTaskList%37
                0x2000afd4        0x4
 .bss.pxOverflowDelayedTaskList
                0x2000afd4        0x4 build/mcp9808/production/_ext/404212886/FreeRTOS_tasks.o

.bss.uxCurrentNumberOfTasks%38
                0x2000afd8        0x4
 .bss.uxCurrentNumberOfTasks
                0x2000afd8        0x4 build/mcp9808/production/_ext/404212886/FreeRTOS_tasks.o

.bss.uxDeletedTasksWaitingCleanUp%39
                0x2000afdc        0x4
 .bss.uxDeletedTasksWaitingCleanUp
                0x2000afdc        0x4 build/mcp9808/production/_ext/404212886/FreeRTOS_tasks.o

.bss.uxSchedulerSuspended%40
                0x2000afe0        0x4
 .bss.uxSchedulerSuspended
                0x2000afe0        0x4 build/mcp9808/production/_ext/404212886/FreeRTOS_tasks.o

.bss.uxTaskNumber%41
                0x2000afe4        0x4
 .bss.uxTaskNumber
                0x2000afe4        0x4 build/mcp9808/production/_ext/404212886/FreeRTOS_tasks.o

.bss.uxTopReadyPriority%42
                0x2000afe8        0x4
 .bss.uxTopReadyPriority
                0x2000afe8        0x4 build/mcp9808/production/_ext/404212886/FreeRTOS_tasks.o

.bss.xIdleTaskHandle%43
                0x2000afec        0x4
 .bss.xIdleTaskHandle
                0x2000afec        0x4 build/mcp9808/production/_ext/404212886/FreeRTOS_tasks.o

.bss.xNextTaskUnblockTime%44
                0x2000aff0        0x4
 .bss.xNextTaskUnblockTime
                0x2000aff0        0x4 build/mcp9808/production/_ext/404212886/FreeRTOS_tasks.o

.bss.xNumOfOverflows%45
                0x2000aff4        0x4
 .bss.xNumOfOverflows
                0x2000aff4        0x4 build/mcp9808/production/_ext/404212886/FreeRTOS_tasks.o

.bss.xPendedTicks%46
                0x2000aff8        0x4
 .bss.xPendedTicks
                0x2000aff8        0x4 build/mcp9808/production/_ext/404212886/FreeRTOS_tasks.o

.bss.xSchedulerRunning%47
                0x2000affc        0x4
 .bss.xSchedulerRunning
                0x2000affc        0x4 build/mcp9808/production/_ext/404212886/FreeRTOS_tasks.o

.bss.xTickCount%48
                0x2000b000        0x4
 .bss.xTickCount
                0x2000b000        0x4 build/mcp9808/production/_ext/404212886/FreeRTOS_tasks.o

.bss.xYieldPending%49
                0x2000b004        0x4
 .bss.xYieldPending
                0x2000b004        0x4 build/mcp9808/production/_ext/404212886/FreeRTOS_tasks.o

.bss%50         0x2000b008       0x10
 .bss           0x2000b008        0x4 c:/program files/microchip/xc32/v4.20/bin/bin/../../lib/gcc/pic32c/8.3.1/../../../../pic32c/lib/thumb/v7e-m+fp/hard\libpic32c.a(data_init_0_1.o)
 .bss           0x2000b00c        0x4 c:/program files/microchip/xc32/v4.20/bin/bin/../../lib/gcc/pic32c/8.3.1/../../../../pic32c/lib/thumb/v7e-m+fp/hard\libc-musl.a(strtok.o)
 .bss           0x2000b010        0x4 c:/program files/microchip/xc32/v4.20/bin/bin/../../lib/gcc/pic32c/8.3.1/../../../../pic32c/lib/thumb/v7e-m+fp/hard\libc-musl.a(__environ.o)
                0x2000b010                __environ
                0x2000b010                environ
                0x2000b010                ___environ
                0x2000b010                _environ
 .bss           0x2000b014        0x4 c:/program files/microchip/xc32/v4.20/bin/bin/../../lib/gcc/pic32c/8.3.1/../../../../pic32c/lib/thumb/v7e-m+fp/hard\libc-musl.a(__errno_location.o)
                0x2000b014                __errno_val

.bss.app_mcp9808Data%54
                0x2000b018        0x1
 .bss.app_mcp9808Data
                0x2000b018        0x1 build/mcp9808/production/_ext/1360937237/app_mcp9808.o
                0x2000b018                app_mcp9808Data

.bss.error_reported.9567%55
                0x2000b019        0x1
 .bss.error_reported.9567
                0x2000b019        0x1 build/mcp9808/production/_ext/1427623807/sys_command.o

.bss.isConsoleMutexCreated%56
                0x2000b01a        0x1
 .bss.isConsoleMutexCreated
                0x2000b01a        0x1 build/mcp9808/production/_ext/1884335987/sys_console.o

.data%57        0x2000b01c       0x20
 .data          0x2000b01c       0x20 c:/program files/microchip/xc32/v4.20/bin/bin/../../lib/gcc/pic32c/8.3.1/../../../../pic32c/lib/thumb/v7e-m+fp/hard\libc-musl.a(stdout.o)
                0x2000b038                _stdout

.data.uxCriticalNesting%58
                0x2000b03c        0x4
 .data.uxCriticalNesting
                0x2000b03c        0x4 build/mcp9808/production/_ext/246609638/port.o

.data.uxTopUsedPriority%59
                0x2000b040        0x4
 .data.uxTopUsedPriority
                0x2000b040        0x4 build/mcp9808/production/_ext/404212886/FreeRTOS_tasks.o
                0x2000b040                uxTopUsedPriority

.eh_frame%z1    0x00000000        0x0
 .eh_frame      0x00000000        0x0 c:/program files/microchip/xc32/v4.20/bin/bin/../../lib/gcc/pic32c/8.3.1/thumb/v7e-m+fp/hard/crtbegin.o

.config_00804000.__config_00804000%60
                0x00804000        0x4
 .config_00804000.__config_00804000
                0x00804000        0x4 build/mcp9808/production/_ext/519814254/initialization.o
                0x00804000                __config_00804000

.config_00804004.__config_00804004%61
                0x00804004        0x4
 .config_00804004.__config_00804004
                0x00804004        0x4 build/mcp9808/production/_ext/519814254/initialization.o
                0x00804004                __config_00804004

.config_00804008.__config_00804008%62
                0x00804008        0x4
 .config_00804008.__config_00804008
                0x00804008        0x4 build/mcp9808/production/_ext/519814254/initialization.o
                0x00804008                __config_00804008

.text.__fmt_fp%63
                0x00000290      0x4c4
 .text.__fmt_fp
                0x00000290      0x4c4 c:/program files/microchip/xc32/v4.20/bin/bin/../../lib/gcc/pic32c/8.3.1/../../../../pic32c/lib/thumb/v7e-m+fp/hard\libc-musl.a(__fmt_fp.o)
                0x00000290                __fmt_f_needed
                0x00000290                __fmt_fp

.text.__fmt_a%64
                0x00000758      0x4b8
 .text.__fmt_a  0x00000758      0x4b8 c:/program files/microchip/xc32/v4.20/bin/bin/../../lib/gcc/pic32c/8.3.1/../../../../pic32c/lib/thumb/v7e-m+fp/hard\libc-musl.a(__fmt_a.o)
                0x00000758                __fmt_a_needed
                0x00000758                __fmt_a

.text.SYS_CMD_Tasks%65
                0x00000c10      0x458
 .text.SYS_CMD_Tasks
                0x00000c10      0x458 build/mcp9808/production/_ext/1427623807/sys_command.o
                0x00000c10                SYS_CMD_Tasks

.dinit%66       0x00001068      0x300
 .dinit         0x00001068      0x300 data_init

.text.__printf_core%67
                0x00001368      0x2f4
 .text.__printf_core
                0x00001368      0x2f4 c:/program files/microchip/xc32/v4.20/bin/bin/../../lib/gcc/pic32c/8.3.1/../../../../pic32c/lib/thumb/v7e-m+fp/hard\libc-musl.a(__printf_core.o)
                0x00001368                __printf_core

.text%68        0x0000165c      0x2bc
 .text          0x0000165c      0x2bc c:/program files/microchip/xc32/v4.20/bin/bin/../../lib/gcc/pic32c/8.3.1/thumb/v7e-m+fp/hard\libgcc.a(_udivmoddi4.o)
                0x0000165c                __udivmoddi4

.rodata%69      0x00001918      0x26c
 .rodata        0x00001918      0x26c build/mcp9808/production/_ext/1427623807/sys_command.o

.text.__aeabi_dadd%70
                0x00001b84      0x23e
 .text.__aeabi_dadd
                0x00001b84      0x23e c:/program files/microchip/xc32/v4.20/bin/bin/../../lib/gcc/pic32c/8.3.1/../../../../pic32c/lib/thumb/v7e-m+fp/hard\libm-emfloat.a(__aeabi_dadd.o)
                0x00001b84                __aeabi_dadd

.text.__aeabi_ddiv%71
                0x00001dc2      0x216
 .text.__aeabi_ddiv
                0x00001dc2      0x216 c:/program files/microchip/xc32/v4.20/bin/bin/../../lib/gcc/pic32c/8.3.1/../../../../pic32c/lib/thumb/v7e-m+fp/hard\libm-emfloat.a(__aeabi_ddiv.o)
                0x00001dc2                __aeabi_ddiv

.text._DRV_I2C_WriteReadTransferAdd%72
                0x00001fd8      0x214
 .text._DRV_I2C_WriteReadTransferAdd
                0x00001fd8      0x214 build/mcp9808/production/_ext/136144951/drv_i2c.o

.text.xTaskCreate%73
                0x000021ec      0x1f4
 .text.xTaskCreate
                0x000021ec      0x1f4 build/mcp9808/production/_ext/404212886/FreeRTOS_tasks.o
                0x000021ec                xTaskCreate

.text.SERCOM1_USART_InterruptHandler%74
                0x000023e0      0x1d4
 .text.SERCOM1_USART_InterruptHandler
                0x000023e0      0x1d4 build/mcp9808/production/_ext/1027107927/plib_sercom1_usart.o
                0x000023e0                SERCOM1_USART_InterruptHandler

.text.SERCOM6_I2C_InterruptHandler%75
                0x000025b4      0x1b0
 .text.SERCOM6_I2C_InterruptHandler
                0x000025b4      0x1b0 build/mcp9808/production/_ext/1646999677/plib_sercom6_i2c_master.o
                0x000025b4                SERCOM6_I2C_InterruptHandler

.text.xTaskIncrementTick%76
                0x00002764      0x194
 .text.xTaskIncrementTick
                0x00002764      0x194 build/mcp9808/production/_ext/404212886/FreeRTOS_tasks.o
                0x00002764                xTaskIncrementTick

.text.xTaskResumeAll%77
                0x000028f8      0x170
 .text.xTaskResumeAll
                0x000028f8      0x170 build/mcp9808/production/_ext/404212886/FreeRTOS_tasks.o
                0x000028f8                xTaskResumeAll

.text.CommandHelp%78
                0x00002a68      0x164
 .text.CommandHelp
                0x00002a68      0x164 build/mcp9808/production/_ext/1427623807/sys_command.o

.text.APP_MCP9808_Tasks%79
                0x00002bcc      0x15c
 .text.APP_MCP9808_Tasks
                0x00002bcc      0x15c build/mcp9808/production/_ext/1360937237/app_mcp9808.o
                0x00002bcc                APP_MCP9808_Tasks

.text.xQueueSemaphoreTake%80
                0x00002d28      0x154
 .text.xQueueSemaphoreTake
                0x00002d28      0x154 build/mcp9808/production/_ext/404212886/queue.o
                0x00002d28                xQueueSemaphoreTake

.rodata%81      0x00002e7c      0x134
 .rodata        0x00002e7c      0x134 build/mcp9808/production/_ext/1360937237/app_mcp9808.o

.text.__aeabi_dmul%82
                0x00002fb0      0x130
 .text.__aeabi_dmul
                0x00002fb0      0x130 c:/program files/microchip/xc32/v4.20/bin/bin/../../lib/gcc/pic32c/8.3.1/../../../../pic32c/lib/thumb/v7e-m+fp/hard\libm-emfloat.a(__aeabi_dmul.o)
                0x00002fb0                __aeabi_dmul

.text.xQueueGenericSend%83
                0x000030e0      0x124
 .text.xQueueGenericSend
                0x000030e0      0x124 build/mcp9808/production/_ext/404212886/queue.o
                0x000030e0                xQueueGenericSend

.text.__fmt_x%84
                0x00003204      0x11e
 .text.__fmt_x  0x00003204      0x11e c:/program files/microchip/xc32/v4.20/bin/bin/../../lib/gcc/pic32c/8.3.1/../../../../pic32c/lib/thumb/v7e-m+fp/hard\libc-musl.a(__fmt_x.o)
                0x00003204                __fmt_x_needed
                0x00003204                __fmt_x

.text.SERCOM6_I2C_TransferSetup%85
                0x00003324      0x100
 .text.SERCOM6_I2C_TransferSetup
                0x00003324      0x100 build/mcp9808/production/_ext/1646999677/plib_sercom6_i2c_master.o
                0x00003324                SERCOM6_I2C_TransferSetup

.text.DRV_I2C_Open%86
                0x00003424       0xfc
 .text.DRV_I2C_Open
                0x00003424       0xfc build/mcp9808/production/_ext/136144951/drv_i2c.o
                0x00003424                DRV_I2C_Open

.text.free%87   0x00003520       0xf8
 .text.free     0x00003520       0xf8 c:/program files/microchip/xc32/v4.20/bin/bin/../../lib/gcc/pic32c/8.3.1/../../../../pic32c/lib/thumb/v7e-m+fp/hard\libc-musl.a(malloc.o)
                0x00003520                free

.text.CLOCK_Initialize%88
                0x00003618       0xe8
 .text.CLOCK_Initialize
                0x00003618       0xe8 build/mcp9808/production/_ext/1885943492/plib_clock.o
                0x00003618                CLOCK_Initialize

.text.SERCOM1_USART_Write%89
                0x00003700       0xd8
 .text.SERCOM1_USART_Write
                0x00003700       0xd8 build/mcp9808/production/_ext/1027107927/plib_sercom1_usart.o
                0x00003700                SERCOM1_USART_Write

.text.xTaskRemoveFromEventList%90
                0x000037d8       0xd8
 .text.xTaskRemoveFromEventList
                0x000037d8       0xd8 build/mcp9808/production/_ext/404212886/FreeRTOS_tasks.o
                0x000037d8                xTaskRemoveFromEventList

.text.DRV_MCP9808_Open%91
                0x000038b0       0xd0
 .text.DRV_MCP9808_Open
                0x000038b0       0xd0 build/mcp9808/production/_ext/1243884746/drv_mcp9808.o
                0x000038b0                DRV_MCP9808_Open

.text.floor%92  0x00003980       0xcc
 .text.floor    0x00003980       0xcc c:/program files/microchip/xc32/v4.20/bin/bin/../../lib/gcc/pic32c/8.3.1/../../../../pic32c/lib/thumb/v7e-m+fp/hard\libm-emfloat.a(floor.o)
                0x00003980                floor

.text.xTaskPriorityInherit%93
                0x00003a4c       0xc4
 .text.xTaskPriorityInherit
                0x00003a4c       0xc4 build/mcp9808/production/_ext/404212886/FreeRTOS_tasks.o
                0x00003a4c                xTaskPriorityInherit

.text._DRV_I2C_NextTransferInitiate%94
                0x00003b10       0xb4
 .text._DRV_I2C_NextTransferInitiate
                0x00003b10       0xb4 build/mcp9808/production/_ext/136144951/drv_i2c.o

.text.DRV_TEMP_SENSOR_DRVEventHandler%95
                0x00003bc4       0xb0
 .text.DRV_TEMP_SENSOR_DRVEventHandler
                0x00003bc4       0xb0 build/mcp9808/production/_ext/1243884746/drv_mcp9808.o

.text.prvAddCurrentTaskToDelayedList%96
                0x00003c74       0xb0
 .text.prvAddCurrentTaskToDelayedList
                0x00003c74       0xb0 build/mcp9808/production/_ext/404212886/FreeRTOS_tasks.o

.text.__pop_int%97
                0x00003d24       0xac
 .text.__pop_int
                0x00003d24       0xac c:/program files/microchip/xc32/v4.20/bin/bin/../../lib/gcc/pic32c/8.3.1/../../../../pic32c/lib/thumb/v7e-m+fp/hard\libc-musl.a(__pop_int.o)
                0x00003d24                __pop_int_needed
                0x00003d24                __pop_int

.text.vTaskSwitchContext%98
                0x00003dd0       0xa8
 .text.vTaskSwitchContext
                0x00003dd0       0xa8 build/mcp9808/production/_ext/404212886/FreeRTOS_tasks.o
                0x00003dd0                vTaskSwitchContext

.text.__fmt_d%99
                0x00003e78       0xa8
 .text.__fmt_d  0x00003e78       0xa8 c:/program files/microchip/xc32/v4.20/bin/bin/../../lib/gcc/pic32c/8.3.1/../../../../pic32c/lib/thumb/v7e-m+fp/hard\libc-musl.a(__fmt_d.o)
                0x00003e78                __fmt_d
                0x00003e78                __fmt_d_needed

.text.vTaskPriorityDisinheritAfterTimeout%100
                0x00003f20       0x9c
 .text.vTaskPriorityDisinheritAfterTimeout
                0x00003f20       0x9c build/mcp9808/production/_ext/404212886/FreeRTOS_tasks.o
                0x00003f20                vTaskPriorityDisinheritAfterTimeout

.text.DisplayNodeMsg%101
                0x00003fbc       0x98
 .text.DisplayNodeMsg
                0x00003fbc       0x98 build/mcp9808/production/_ext/1427623807/sys_command.o

.text.NVIC_Initialize%102
                0x00004054       0x94
 .text.NVIC_Initialize
                0x00004054       0x94 build/mcp9808/production/_ext/1324973556/plib_nvic.o
                0x00004054                NVIC_Initialize

.text._DRV_I2C_ResourceLock%103
                0x000040e8       0x90
 .text._DRV_I2C_ResourceLock
                0x000040e8       0x90 build/mcp9808/production/_ext/136144951/drv_i2c.o

.text.xQueueGenericReset%104
                0x00004178       0x90
 .text.xQueueGenericReset
                0x00004178       0x90 build/mcp9808/production/_ext/404212886/queue.o
                0x00004178                xQueueGenericReset

.text.DRV_I2C_Initialize%105
                0x00004208       0x8c
 .text.DRV_I2C_Initialize
                0x00004208       0x8c build/mcp9808/production/_ext/136144951/drv_i2c.o
                0x00004208                DRV_I2C_Initialize

.text.xTaskPriorityDisinherit%106
                0x00004294       0x8c
 .text.xTaskPriorityDisinherit
                0x00004294       0x8c build/mcp9808/production/_ext/404212886/FreeRTOS_tasks.o
                0x00004294                xTaskPriorityDisinherit

.text.SYS_CMDIO_ADD%107
                0x00004320       0x88
 .text.SYS_CMDIO_ADD
                0x00004320       0x88 build/mcp9808/production/_ext/1427623807/sys_command.o
                0x00004320                SYS_CMDIO_ADD

.text.Reset_Handler%108
                0x000043a8       0x88
 .text.Reset_Handler
                0x000043a8       0x88 build/mcp9808/production/_ext/519814254/startup_xc32.o
                0x000043a8                Reset_Handler

.text.pvPortMalloc%109
                0x00004430       0x88
 .text.pvPortMalloc
                0x00004430       0x88 build/mcp9808/production/_ext/1665200909/heap_1.o
                0x00004430                pvPortMalloc

.text._DRV_I2C_ResourceUnlock%110
                0x000044b8       0x84
 .text._DRV_I2C_ResourceUnlock
                0x000044b8       0x84 build/mcp9808/production/_ext/136144951/drv_i2c.o

.text.DRV_MCP9808_Write%111
                0x0000453c       0x80
 .text.DRV_MCP9808_Write
                0x0000453c       0x80 build/mcp9808/production/_ext/1243884746/drv_mcp9808.o
                0x0000453c                DRV_MCP9808_Write

.text.SendCommandPrint%112
                0x000045bc       0x80
 .text.SendCommandPrint
                0x000045bc       0x80 build/mcp9808/production/_ext/1427623807/sys_command.o

.text.SYS_CMD_PRINT%113
                0x0000463c       0x80
 .text.SYS_CMD_PRINT
                0x0000463c       0x80 build/mcp9808/production/_ext/1427623807/sys_command.o
                0x0000463c                SYS_CMD_PRINT

.text.__pad%114
                0x000046bc       0x80
 .text.__pad    0x000046bc       0x80 c:/program files/microchip/xc32/v4.20/bin/bin/../../lib/gcc/pic32c/8.3.1/../../../../pic32c/lib/thumb/v7e-m+fp/hard\libc-musl.a(__printf_core.o)
                0x000046bc                __pad

.text.prvUnlockQueue%115
                0x0000473c       0x7e
 .text.prvUnlockQueue
                0x0000473c       0x7e build/mcp9808/production/_ext/404212886/queue.o

.text.strspn%116
                0x000047ba       0x7e
 .text.strspn   0x000047ba       0x7e c:/program files/microchip/xc32/v4.20/bin/bin/../../lib/gcc/pic32c/8.3.1/../../../../pic32c/lib/thumb/v7e-m+fp/hard\libc-musl.a(strspn.o)
                0x000047ba                strspn

.text.SERCOM1_USART_Initialize%117
                0x00004838       0x7c
 .text.SERCOM1_USART_Initialize
                0x00004838       0x7c build/mcp9808/production/_ext/1027107927/plib_sercom1_usart.o
                0x00004838                SERCOM1_USART_Initialize

.text.SERCOM1_USART_Read%118
                0x000048b4       0x7c
 .text.SERCOM1_USART_Read
                0x000048b4       0x7c build/mcp9808/production/_ext/1027107927/plib_sercom1_usart.o
                0x000048b4                SERCOM1_USART_Read

.text.__pop_ptr%119
                0x00004930       0x7c
 .text.__pop_ptr
                0x00004930       0x7c c:/program files/microchip/xc32/v4.20/bin/bin/../../lib/gcc/pic32c/8.3.1/../../../../pic32c/lib/thumb/v7e-m+fp/hard\libc-musl.a(__pop_ptr.o)
                0x00004930                __pop_ptr
                0x00004930                __pop_ptr_needed

.text.__cvt_u%120
                0x000049ac       0x78
 .text.__cvt_u  0x000049ac       0x78 c:/program files/microchip/xc32/v4.20/bin/bin/../../lib/gcc/pic32c/8.3.1/../../../../pic32c/lib/thumb/v7e-m+fp/hard\libc-musl.a(__fmt_u.o)
                0x000049ac                __cvt_u

.text.prvCopyDataToQueue%121
                0x00004a24       0x76
 .text.prvCopyDataToQueue
                0x00004a24       0x76 build/mcp9808/production/_ext/404212886/queue.o

.text.strcspn%122
                0x00004a9a       0x76
 .text.strcspn  0x00004a9a       0x76 c:/program files/microchip/xc32/v4.20/bin/bin/../../lib/gcc/pic32c/8.3.1/../../../../pic32c/lib/thumb/v7e-m+fp/hard\libc-musl.a(strcspn.o)
                0x00004a9a                strcspn

.text.__fmt_o%123
                0x00004b10       0x72
 .text.__fmt_o  0x00004b10       0x72 c:/program files/microchip/xc32/v4.20/bin/bin/../../lib/gcc/pic32c/8.3.1/../../../../pic32c/lib/thumb/v7e-m+fp/hard\libc-musl.a(__fmt_o.o)
                0x00004b10                __fmt_o
                0x00004b10                __fmt_o_needed

.text.prvIdleTask%124
                0x00004b84       0x70
 .text.prvIdleTask
                0x00004b84       0x70 build/mcp9808/production/_ext/404212886/FreeRTOS_tasks.o

.text.SYS_CMD_ADDGRP%125
                0x00004bf4       0x6c
 .text.SYS_CMD_ADDGRP
                0x00004bf4       0x6c build/mcp9808/production/_ext/1427623807/sys_command.o
                0x00004bf4                SYS_CMD_ADDGRP

.text.vTaskStartScheduler%126
                0x00004c60       0x6c
 .text.vTaskStartScheduler
                0x00004c60       0x6c build/mcp9808/production/_ext/404212886/FreeRTOS_tasks.o
                0x00004c60                vTaskStartScheduler

.text.DRV_MCP9808_ReadWord%127
                0x00004ccc       0x68
 .text.DRV_MCP9808_ReadWord
                0x00004ccc       0x68 build/mcp9808/production/_ext/1243884746/drv_mcp9808.o
                0x00004ccc                DRV_MCP9808_ReadWord

.text.DRV_MCP9808_TemperatureRead%128
                0x00004d34       0x68
 .text.DRV_MCP9808_TemperatureRead
                0x00004d34       0x68 build/mcp9808/production/_ext/1243884746/drv_mcp9808.o
                0x00004d34                DRV_MCP9808_TemperatureRead

.text.SYS_CONSOLE_Initialize%129
                0x00004d9c       0x68
 .text.SYS_CONSOLE_Initialize
                0x00004d9c       0x68 build/mcp9808/production/_ext/1884335987/sys_console.o
                0x00004d9c                SYS_CONSOLE_Initialize

.text.DRV_I2C_Close%130
                0x00004e04       0x64
 .text.DRV_I2C_Close
                0x00004e04       0x64 build/mcp9808/production/_ext/136144951/drv_i2c.o
                0x00004e04                DRV_I2C_Close

.text.PORT_Initialize%131
                0x00004e68       0x64
 .text.PORT_Initialize
                0x00004e68       0x64 build/mcp9808/production/_ext/1325026707/plib_port.o
                0x00004e68                PORT_Initialize

.text.xPortPendSVHandler%132
                0x00004ed0       0x64
 .text.xPortPendSVHandler
                0x00004ed0       0x64 build/mcp9808/production/_ext/246609638/port.o
                0x00004ed0                xPortPendSVHandler

.text.SERCOM6_I2C_Initialize%133
                0x00004f34       0x60
 .text.SERCOM6_I2C_Initialize
                0x00004f34       0x60 build/mcp9808/production/_ext/1646999677/plib_sercom6_i2c_master.o
                0x00004f34                SERCOM6_I2C_Initialize

.text.SYS_Initialize%134
                0x00004f94       0x60
 .text.SYS_Initialize
                0x00004f94       0x60 build/mcp9808/production/_ext/519814254/initialization.o
                0x00004f94                SYS_Initialize

.text.xTaskCheckForTimeOut%135
                0x00004ff4       0x60
 .text.xTaskCheckForTimeOut
                0x00004ff4       0x60 build/mcp9808/production/_ext/404212886/FreeRTOS_tasks.o
                0x00004ff4                xTaskCheckForTimeOut

.text.__pic32c_data_initialization_impl%136
                0x00005054       0x60
 .text.__pic32c_data_initialization_impl
                0x00005054       0x60 c:/program files/microchip/xc32/v4.20/bin/bin/../../lib/gcc/pic32c/8.3.1/../../../../pic32c/lib/thumb/v7e-m+fp/hard\libpic32c.a(data_init_0_1.o)
                0x00005054                __copy_needed
                0x00005054                __pic32c_data_initialization_impl

.text.vsnprintf%137
                0x000050b4       0x60
 .text.vsnprintf
                0x000050b4       0x60 c:/program files/microchip/xc32/v4.20/bin/bin/../../lib/gcc/pic32c/8.3.1/../../../../pic32c/lib/thumb/v7e-m+fp/hard\libc-musl.a(vsnprintf.o)
                0x000050b4                vsnprintf

.text.__strchrnul%138
                0x00005114       0x60
 .text.__strchrnul
                0x00005114       0x60 c:/program files/microchip/xc32/v4.20/bin/bin/../../lib/gcc/pic32c/8.3.1/../../../../pic32c/lib/thumb/v7e-m+fp/hard\libc-musl.a(strchrnul.o)
                0x00005114                strchrnul
                0x00005114                __strchrnul

.text.__libc_start_init%139
                0x00005174       0x5c
 .text.__libc_start_init
                0x00005174       0x5c c:/program files/microchip/xc32/v4.20/bin/bin/../../lib/gcc/pic32c/8.3.1/../../../../pic32c/lib/thumb/v7e-m+fp/hard\libc-musl.a(__libc_start_main.o)
                0x00005174                __libc_init_array

.rodata%140     0x000051d0       0x5c
 .rodata        0x000051d0       0x5c c:/program files/microchip/xc32/v4.20/bin/bin/../../lib/gcc/pic32c/8.3.1/../../../../pic32c/lib/thumb/v7e-m+fp/hard\libc-musl.a(malloc.o)

.text.DRV_I2C_ErrorGet%141
                0x0000522c       0x58
 .text.DRV_I2C_ErrorGet
                0x0000522c       0x58 build/mcp9808/production/_ext/136144951/drv_i2c.o
                0x0000522c                DRV_I2C_ErrorGet

.text.unbin%142
                0x00005284       0x58
 .text.unbin    0x00005284       0x58 c:/program files/microchip/xc32/v4.20/bin/bin/../../lib/gcc/pic32c/8.3.1/../../../../pic32c/lib/thumb/v7e-m+fp/hard\libc-musl.a(malloc.o)

.text.__fmt_s%143
                0x000052dc       0x58
 .text.__fmt_s  0x000052dc       0x58 c:/program files/microchip/xc32/v4.20/bin/bin/../../lib/gcc/pic32c/8.3.1/../../../../pic32c/lib/thumb/v7e-m+fp/hard\libc-musl.a(__fmt_s.o)
                0x000052dc                __fmt_s
                0x000052dc                __fmt_0_needed
                0x000052dc                __fmt_s_needed

.text.__fmt_u%144
                0x00005334       0x56
 .text.__fmt_u  0x00005334       0x56 c:/program files/microchip/xc32/v4.20/bin/bin/../../lib/gcc/pic32c/8.3.1/../../../../pic32c/lib/thumb/v7e-m+fp/hard\libc-musl.a(__fmt_u.o)
                0x00005334                __fmt_u_needed
                0x00005334                __fmt_u

.text._DRV_I2C_PLibCallbackHandler%145
                0x0000538c       0x54
 .text._DRV_I2C_PLibCallbackHandler
                0x0000538c       0x54 build/mcp9808/production/_ext/136144951/drv_i2c.o

.text.Console_UART_Read%146
                0x000053e0       0x54
 .text.Console_UART_Read
                0x000053e0       0x54 build/mcp9808/production/_ext/1884335987/sys_console_uart.o
                0x000053e0                Console_UART_Read

.text.Console_UART_Write%147
                0x00005434       0x54
 .text.Console_UART_Write
                0x00005434       0x54 build/mcp9808/production/_ext/1884335987/sys_console_uart.o
                0x00005434                Console_UART_Write

.text.SYS_CONSOLE_Status%148
                0x00005488       0x50
 .text.SYS_CONSOLE_Status
                0x00005488       0x50 build/mcp9808/production/_ext/1884335987/sys_console.o
                0x00005488                SYS_CONSOLE_Status

.text.APP_MCP9808_Initialize%149
                0x000054d8       0x50
 .text.APP_MCP9808_Initialize
                0x000054d8       0x50 build/mcp9808/production/_ext/1360937237/app_mcp9808.o
                0x000054d8                APP_MCP9808_Initialize

.text.DRV_MCP9808_Initialize%150
                0x00005528       0x4c
 .text.DRV_MCP9808_Initialize
                0x00005528       0x4c build/mcp9808/production/_ext/1243884746/drv_mcp9808.o
                0x00005528                DRV_MCP9808_Initialize

.text._DRV_I2C_DriverHandleValidate%151
                0x00005574       0x4c
 .text._DRV_I2C_DriverHandleValidate
                0x00005574       0x4c build/mcp9808/production/_ext/136144951/drv_i2c.o

.text.SERCOM6_I2C_InitiateTransfer%152
                0x000055c0       0x4c
 .text.SERCOM6_I2C_InitiateTransfer
                0x000055c0       0x4c build/mcp9808/production/_ext/1646999677/plib_sercom6_i2c_master.o

.text.SYS_Tasks%153
                0x0000560c       0x4c
 .text.SYS_Tasks
                0x0000560c       0x4c build/mcp9808/production/_ext/519814254/tasks.o
                0x0000560c                SYS_Tasks

.text.xQueueGenericCreate%154
                0x00005658       0x4a
 .text.xQueueGenericCreate
                0x00005658       0x4a build/mcp9808/production/_ext/404212886/queue.o
                0x00005658                xQueueGenericCreate

.text.__aeabi_d2iz%155
                0x000056a2       0x4a
 .text.__aeabi_d2iz
                0x000056a2       0x4a c:/program files/microchip/xc32/v4.20/bin/bin/../../lib/gcc/pic32c/8.3.1/../../../../pic32c/lib/thumb/v7e-m+fp/hard\libm-emfloat.a(__aeabi_d2iz.o)
                0x000056a2                __aeabi_d2iz

.text._DRV_I2C_ClientCallback%156
                0x000056ec       0x48
 .text._DRV_I2C_ClientCallback
                0x000056ec       0x48 build/mcp9808/production/_ext/136144951/drv_i2c.o

.rodata.keySeqTbl%157
                0x00005734       0x48
 .rodata.keySeqTbl
                0x00005734       0x48 build/mcp9808/production/_ext/1427623807/sys_command.o

.text.Console_UART_WriteCountGet%158
                0x0000577c       0x48
 .text.Console_UART_WriteCountGet
                0x0000577c       0x48 build/mcp9808/production/_ext/1884335987/sys_console_uart.o
                0x0000577c                Console_UART_WriteCountGet

.text.Console_UART_WriteFreeBufferCountGet%159
                0x000057c4       0x48
 .text.Console_UART_WriteFreeBufferCountGet
                0x000057c4       0x48 build/mcp9808/production/_ext/1884335987/sys_console_uart.o
                0x000057c4                Console_UART_WriteFreeBufferCountGet

.text.Console_UART_ReadFreeBufferCountGet%160
                0x0000580c       0x48
 .text.Console_UART_ReadFreeBufferCountGet
                0x0000580c       0x48 build/mcp9808/production/_ext/1884335987/sys_console_uart.o
                0x0000580c                Console_UART_ReadFreeBufferCountGet

.text.Console_UART_ReadCountGet%161
                0x00005854       0x48
 .text.Console_UART_ReadCountGet
                0x00005854       0x48 build/mcp9808/production/_ext/1884335987/sys_console_uart.o
                0x00005854                Console_UART_ReadCountGet

.text.xPortStartScheduler%162
                0x0000589c       0x48
 .text.xPortStartScheduler
                0x0000589c       0x48 build/mcp9808/production/_ext/246609638/port.o
                0x0000589c                xPortStartScheduler

.text.strtok%163
                0x000058e4       0x48
 .text.strtok   0x000058e4       0x48 c:/program files/microchip/xc32/v4.20/bin/bin/../../lib/gcc/pic32c/8.3.1/../../../../pic32c/lib/thumb/v7e-m+fp/hard\libc-musl.a(strtok.o)
                0x000058e4                strtok

.text.atoi%164  0x0000592c       0x46
 .text.atoi     0x0000592c       0x46 c:/program files/microchip/xc32/v4.20/bin/bin/../../lib/gcc/pic32c/8.3.1/../../../../pic32c/lib/thumb/v7e-m+fp/hard\libc-musl.a(atoi.o)
                0x0000592c                atoi

.text.SERCOM6_I2C_TransferAbort%165
                0x00005974       0x44
 .text.SERCOM6_I2C_TransferAbort
                0x00005974       0x44 build/mcp9808/production/_ext/1646999677/plib_sercom6_i2c_master.o
                0x00005974                SERCOM6_I2C_TransferAbort

.text.SYS_INT_SourceDisable%166
                0x000059b8       0x44
 .text.SYS_INT_SourceDisable
                0x000059b8       0x44 build/mcp9808/production/_ext/1587138469/sys_int.o
                0x000059b8                SYS_INT_SourceDisable

.text%167       0x000059fc       0x40
 .text          0x000059fc       0x40 c:/program files/microchip/xc32/v4.20/bin/bin/../../lib/gcc/pic32c/8.3.1/thumb/v7e-m+fp/hard/crtbegin.o

.text.DRV_TEMP_SENSOR_ClientObjGet%168
                0x00005a3c       0x40
 .text.DRV_TEMP_SENSOR_ClientObjGet
                0x00005a3c       0x40 build/mcp9808/production/_ext/1243884746/drv_mcp9808.o

.text.DRV_MCP9808_TransferSetup%169
                0x00005a7c       0x3c
 .text.DRV_MCP9808_TransferSetup
                0x00005a7c       0x3c build/mcp9808/production/_ext/1243884746/drv_mcp9808.o
                0x00005a7c                DRV_MCP9808_TransferSetup

.text.Console_UART_Initialize%170
                0x00005ab8       0x3c
 .text.Console_UART_Initialize
                0x00005ab8       0x3c build/mcp9808/production/_ext/1884335987/sys_console_uart.o
                0x00005ab8                Console_UART_Initialize

.text.__aeabi_dcmple%171
                0x00005af4       0x3c
 .text.__aeabi_dcmple
                0x00005af4       0x3c c:/program files/microchip/xc32/v4.20/bin/bin/../../lib/gcc/pic32c/8.3.1/../../../../pic32c/lib/thumb/v7e-m+fp/hard\libm-emfloat.a(__aeabi_dcmple.o)
                0x00005af4                __aeabi_dcmple

.text.__out%172
                0x00005b30       0x3a
 .text.__out    0x00005b30       0x3a c:/program files/microchip/xc32/v4.20/bin/bin/../../lib/gcc/pic32c/8.3.1/../../../../pic32c/lib/thumb/v7e-m+fp/hard\libc-musl.a(__out.o)
                0x00005b30                __out
                0x00005b30                __out_needed

.text.SERCOM6_I2C_Read%173
                0x00005b6c       0x38
 .text.SERCOM6_I2C_Read
                0x00005b6c       0x38 build/mcp9808/production/_ext/1646999677/plib_sercom6_i2c_master.o
                0x00005b6c                SERCOM6_I2C_Read

.text.bin_index%174
                0x00005ba4       0x38
 .text.bin_index
                0x00005ba4       0x38 c:/program files/microchip/xc32/v4.20/bin/bin/../../lib/gcc/pic32c/8.3.1/../../../../pic32c/lib/thumb/v7e-m+fp/hard\libc-musl.a(malloc.o)

.text.__putc_unbuffered%175
                0x00005bdc       0x38
 .text.__putc_unbuffered
                0x00005bdc       0x38 c:/program files/microchip/xc32/v4.20/bin/bin/../../lib/gcc/pic32c/8.3.1/../../../../pic32c/lib/thumb/v7e-m+fp/hard\libc-musl.a(putc.o)
                0x00005bdc                __putc_unbuffered
                0x00005bdc                __putc

.text.__fmt_state%176
                0x00005c14       0x38
 .text.__fmt_state
                0x00005c14       0x38 c:/program files/microchip/xc32/v4.20/bin/bin/../../lib/gcc/pic32c/8.3.1/../../../../pic32c/lib/thumb/v7e-m+fp/hard\libc-musl.a(__printf_core.o)
                0x00005c14                __fmt_state

.text.__aeabi_dcmpgt%177
                0x00005c4c       0x38
 .text.__aeabi_dcmpgt
                0x00005c4c       0x38 c:/program files/microchip/xc32/v4.20/bin/bin/../../lib/gcc/pic32c/8.3.1/../../../../pic32c/lib/thumb/v7e-m+fp/hard\libm-emfloat.a(__aeabi_dcmpgt.o)
                0x00005c4c                __aeabi_dcmpgt

.text.__aeabi_dcmplt%178
                0x00005c84       0x38
 .text.__aeabi_dcmplt
                0x00005c84       0x38 c:/program files/microchip/xc32/v4.20/bin/bin/../../lib/gcc/pic32c/8.3.1/../../../../pic32c/lib/thumb/v7e-m+fp/hard\libm-emfloat.a(__aeabi_dcmplt.o)
                0x00005c84                __aeabi_dcmplt

.text.DRV_I2C_TransferEventHandlerSet%179
                0x00005cbc       0x34
 .text.DRV_I2C_TransferEventHandlerSet
                0x00005cbc       0x34 build/mcp9808/production/_ext/136144951/drv_i2c.o
                0x00005cbc                DRV_I2C_TransferEventHandlerSet

.text.SERCOM6_I2C_Write%180
                0x00005cf0       0x34
 .text.SERCOM6_I2C_Write
                0x00005cf0       0x34 build/mcp9808/production/_ext/1646999677/plib_sercom6_i2c_master.o
                0x00005cf0                SERCOM6_I2C_Write

.text.SERCOM6_I2C_WriteRead%181
                0x00005d24       0x34
 .text.SERCOM6_I2C_WriteRead
                0x00005d24       0x34 build/mcp9808/production/_ext/1646999677/plib_sercom6_i2c_master.o
                0x00005d24                SERCOM6_I2C_WriteRead

.text.CommandQuit%182
                0x00005d58       0x34
 .text.CommandQuit
                0x00005d58       0x34 build/mcp9808/production/_ext/1427623807/sys_command.o

.text.SYS_CONSOLE_Read%183
                0x00005d8c       0x34
 .text.SYS_CONSOLE_Read
                0x00005d8c       0x34 build/mcp9808/production/_ext/1884335987/sys_console.o
                0x00005d8c                SYS_CONSOLE_Read

.text.SYS_CONSOLE_ReadCountGet%184
                0x00005dc0       0x34
 .text.SYS_CONSOLE_ReadCountGet
                0x00005dc0       0x34 build/mcp9808/production/_ext/1884335987/sys_console.o
                0x00005dc0                SYS_CONSOLE_ReadCountGet

.text.SYS_CONSOLE_Write%185
                0x00005df4       0x34
 .text.SYS_CONSOLE_Write
                0x00005df4       0x34 build/mcp9808/production/_ext/1884335987/sys_console.o
                0x00005df4                SYS_CONSOLE_Write

.text.vTaskDelay%186
                0x00005e28       0x34
 .text.vTaskDelay
                0x00005e28       0x34 build/mcp9808/production/_ext/404212886/FreeRTOS_tasks.o
                0x00005e28                vTaskDelay

.text.vListInsert%187
                0x00005e5c       0x34
 .text.vListInsert
                0x00005e5c       0x34 build/mcp9808/production/_ext/404212886/list.o
                0x00005e5c                vListInsert

.text.stpncpy%188
                0x00005e90       0x34
 .text.stpncpy  0x00005e90       0x34 c:/program files/microchip/xc32/v4.20/bin/bin/../../lib/gcc/pic32c/8.3.1/../../../../pic32c/lib/thumb/v7e-m+fp/hard\libc-musl.a(stpncpy.o)
                0x00005e90                __stpncpy
                0x00005e90                stpncpy

.text._DRV_I2C_RemoveClientTransfersFromList%189
                0x00005ec4       0x32
 .text._DRV_I2C_RemoveClientTransfersFromList
                0x00005ec4       0x32 build/mcp9808/production/_ext/136144951/drv_i2c.o

.text.__aeabi_dcmpeq%190
                0x00005ef6       0x32
 .text.__aeabi_dcmpeq
                0x00005ef6       0x32 c:/program files/microchip/xc32/v4.20/bin/bin/../../lib/gcc/pic32c/8.3.1/../../../../pic32c/lib/thumb/v7e-m+fp/hard\libm-emfloat.a(__aeabi_dcmpeq.o)
                0x00005ef6                __aeabi_dcmpeq

.text.SendCommandCharacter%191
                0x00005f28       0x30
 .text.SendCommandCharacter
                0x00005f28       0x30 build/mcp9808/production/_ext/1427623807/sys_command.o

.text._keyEndProcess%192
                0x00005f58       0x30
 .text._keyEndProcess
                0x00005f58       0x30 build/mcp9808/production/_ext/1427623807/sys_command.o

.text._keyHomeProcess%193
                0x00005f88       0x30
 .text._keyHomeProcess
                0x00005f88       0x30 build/mcp9808/production/_ext/1427623807/sys_command.o

.text.alloc_rev%194
                0x00005fb8       0x30
 .text.alloc_rev
                0x00005fb8       0x30 c:/program files/microchip/xc32/v4.20/bin/bin/../../lib/gcc/pic32c/8.3.1/../../../../pic32c/lib/thumb/v7e-m+fp/hard\libc-musl.a(malloc.o)

.text%195       0x00005fe8       0x30
 .text          0x00005fe8       0x30 c:/program files/microchip/xc32/v4.20/bin/bin/../../lib/gcc/pic32c/8.3.1/thumb/v7e-m+fp/hard\libgcc.a(_aeabi_uldivmod.o)
                0x00005fe8                __aeabi_uldivmod

.rodata.sysConsoleUARTDevDesc%196
                0x00006018       0x2c
 .rodata.sysConsoleUARTDevDesc
                0x00006018       0x2c build/mcp9808/production/_ext/1884335987/sys_console_uart.o
                0x00006018                sysConsoleUARTDevDesc

.text.pxPortInitialiseStack%197
                0x00006044       0x2c
 .text.pxPortInitialiseStack
                0x00006044       0x2c build/mcp9808/production/_ext/246609638/port.o
                0x00006044                pxPortInitialiseStack

.text.xPortSysTickHandler%198
                0x00006070       0x2c
 .text.xPortSysTickHandler
                0x00006070       0x2c build/mcp9808/production/_ext/246609638/port.o
                0x00006070                xPortSysTickHandler

.text.alloc_fwd%199
                0x0000609c       0x2c
 .text.alloc_fwd
                0x0000609c       0x2c c:/program files/microchip/xc32/v4.20/bin/bin/../../lib/gcc/pic32c/8.3.1/../../../../pic32c/lib/thumb/v7e-m+fp/hard\libc-musl.a(malloc.o)

.text.fma%200   0x000060c8       0x2c
 .text.fma      0x000060c8       0x2c c:/program files/microchip/xc32/v4.20/bin/bin/../../lib/gcc/pic32c/8.3.1/../../../../pic32c/lib/thumb/v7e-m+fp/hard\libm-emfloat.a(fma.o)
                0x000060c8                fma

.text.fwrite%201
                0x000060f4       0x2a
 .text.fwrite   0x000060f4       0x2a c:/program files/microchip/xc32/v4.20/bin/bin/../../lib/gcc/pic32c/8.3.1/../../../../pic32c/lib/thumb/v7e-m+fp/hard\libc-musl.a(fwrite.o)
                0x000060f4                fwrite
                0x000060f4                fwrite_unlocked

.text.__pop_float%202
                0x0000611e       0x2a
 .text.__pop_float
                0x0000611e       0x2a c:/program files/microchip/xc32/v4.20/bin/bin/../../lib/gcc/pic32c/8.3.1/../../../../pic32c/lib/thumb/v7e-m+fp/hard\libc-musl.a(__pop_float.o)
                0x0000611e                __pop_float_needed
                0x0000611e                __pop_float

.text.SYS_CMD_Initialize%203
                0x00006148       0x28
 .text.SYS_CMD_Initialize
                0x00006148       0x28 build/mcp9808/production/_ext/1427623807/sys_command.o
                0x00006148                SYS_CMD_Initialize

.text.prvPortStartFirstTask%204
                0x00006170       0x28
 .text.prvPortStartFirstTask
                0x00006170       0x28 build/mcp9808/production/_ext/246609638/port.o

.text.vPortSetupTimerInterrupt%205
                0x00006198       0x28
 .text.vPortSetupTimerInterrupt
                0x00006198       0x28 build/mcp9808/production/_ext/246609638/port.o
                0x00006198                vPortSetupTimerInterrupt

.text.prvResetNextTaskUnblockTime%206
                0x000061c0       0x28
 .text.prvResetNextTaskUnblockTime
                0x000061c0       0x28 build/mcp9808/production/_ext/404212886/FreeRTOS_tasks.o

.text.puts%207  0x000061e8       0x28
 .text.puts     0x000061e8       0x28 c:/program files/microchip/xc32/v4.20/bin/bin/../../lib/gcc/pic32c/8.3.1/../../../../pic32c/lib/thumb/v7e-m+fp/hard\libc-musl.a(puts.o)
                0x000061e8                puts

.text.strncmp%208
                0x00006210       0x28
 .text.strncmp  0x00006210       0x28 c:/program files/microchip/xc32/v4.20/bin/bin/../../lib/gcc/pic32c/8.3.1/../../../../pic32c/lib/thumb/v7e-m+fp/hard\libc-musl.a(strncmp.o)
                0x00006210                strncmp

.rodata._builtinCmdTbl%209
                0x00006238       0x24
 .rodata._builtinCmdTbl
                0x00006238       0x24 build/mcp9808/production/_ext/1427623807/sys_command.o

.text.SYS_RESET_SoftwareReset%210
                0x0000625c       0x24
 .text.SYS_RESET_SoftwareReset
                0x0000625c       0x24 build/mcp9808/production/_ext/1581363856/sys_reset.o
                0x0000625c                SYS_RESET_SoftwareReset

.rodata%211     0x00006280       0x24
 .rodata        0x00006280       0x24 build/mcp9808/production/_ext/519814254/tasks.o

.text.vPortSVCHandler%212
                0x000062b0       0x24
 .text.vPortSVCHandler
                0x000062b0       0x24 build/mcp9808/production/_ext/246609638/port.o
                0x000062b0                vPortSVCHandler

.text.xQueueCreateMutex%213
                0x000062d4       0x24
 .text.xQueueCreateMutex
                0x000062d4       0x24 build/mcp9808/production/_ext/404212886/queue.o
                0x000062d4                xQueueCreateMutex

.text.uxListRemove%214
                0x000062f8       0x24
 .text.uxListRemove
                0x000062f8       0x24 build/mcp9808/production/_ext/404212886/list.o
                0x000062f8                uxListRemove

.text.APP_MCP9808_Callback%215
                0x0000631c       0x24
 .text.APP_MCP9808_Callback
                0x0000631c       0x24 build/mcp9808/production/_ext/1360937237/app_mcp9808.o

.rodata.appCmdTbl%216
                0x00006340       0x24
 .rodata.appCmdTbl
                0x00006340       0x24 build/mcp9808/production/_ext/1360937237/app_mcp9808.o
                0x00006340                appCmdTbl

.text.fputs%217
                0x00006364       0x22
 .text.fputs    0x00006364       0x22 c:/program files/microchip/xc32/v4.20/bin/bin/../../lib/gcc/pic32c/8.3.1/../../../../pic32c/lib/thumb/v7e-m+fp/hard\libc-musl.a(fputs.o)
                0x00006364                fputs
                0x00006364                fputs_unlocked

.text._keyRightProcess%218
                0x00006386       0x20
 .text._keyRightProcess
                0x00006386       0x20 build/mcp9808/production/_ext/1427623807/sys_command.o

.text.GetCommandCharacter%219
                0x000063a8       0x20
 .text.GetCommandCharacter
                0x000063a8       0x20 build/mcp9808/production/_ext/1427623807/sys_command.o

.text.SYS_INT_SourceRestore%220
                0x000063c8       0x20
 .text.SYS_INT_SourceRestore
                0x000063c8       0x20 build/mcp9808/production/_ext/1587138469/sys_int.o
                0x000063c8                SYS_INT_SourceRestore

.rodata.gDrvMCP9808DrvIntf%221
                0x000063e8       0x20
 .rodata.gDrvMCP9808DrvIntf
                0x000063e8       0x20 build/mcp9808/production/_ext/519814254/initialization.o
                0x000063e8                gDrvMCP9808DrvIntf

.text.prvTaskExitError%222
                0x00006408       0x20
 .text.prvTaskExitError
                0x00006408       0x20 build/mcp9808/production/_ext/246609638/port.o

.text.vPortEnterCritical%223
                0x00006428       0x20
 .text.vPortEnterCritical
                0x00006428       0x20 build/mcp9808/production/_ext/246609638/port.o
                0x00006428                vPortEnterCritical

.text.lock_bin%224
                0x00006448       0x20
 .text.lock_bin
                0x00006448       0x20 c:/program files/microchip/xc32/v4.20/bin/bin/../../lib/gcc/pic32c/8.3.1/../../../../pic32c/lib/thumb/v7e-m+fp/hard\libc-musl.a(malloc.o)

.text.OSAL_MUTEX_Lock%225
                0x00006468       0x1e
 .text.OSAL_MUTEX_Lock
                0x00006468       0x1e build/mcp9808/production/_ext/1820763632/osal_freertos.o
                0x00006468                OSAL_MUTEX_Lock

.text._keyUpProcess%226
                0x00006486       0x1e
 .text._keyUpProcess
                0x00006486       0x1e build/mcp9808/production/_ext/1427623807/sys_command.o

.text.DRV_I2C_TransferSetup%227
                0x000064a4       0x1c
 .text.DRV_I2C_TransferSetup
                0x000064a4       0x1c build/mcp9808/production/_ext/136144951/drv_i2c.o
                0x000064a4                DRV_I2C_TransferSetup

.text.DRV_I2C_ReadTransferAdd%228
                0x000064c0       0x1c
 .text.DRV_I2C_ReadTransferAdd
                0x000064c0       0x1c build/mcp9808/production/_ext/136144951/drv_i2c.o
                0x000064c0                DRV_I2C_ReadTransferAdd

.text.DRV_I2C_WriteReadTransferAdd%229
                0x000064dc       0x1c
 .text.DRV_I2C_WriteReadTransferAdd
                0x000064dc       0x1c build/mcp9808/production/_ext/136144951/drv_i2c.o
                0x000064dc                DRV_I2C_WriteReadTransferAdd

.text._keyLeftProcess%230
                0x000064f8       0x1c
 .text._keyLeftProcess
                0x000064f8       0x1c build/mcp9808/production/_ext/1427623807/sys_command.o

.text.SendCommandMessage%231
                0x00006514       0x1c
 .text.SendCommandMessage
                0x00006514       0x1c build/mcp9808/production/_ext/1427623807/sys_command.o

.text.Console_UART_Status%232
                0x00006530       0x1c
 .text.Console_UART_Status
                0x00006530       0x1c build/mcp9808/production/_ext/1884335987/sys_console_uart.o
                0x00006530                Console_UART_Status

.rodata.drvI2C0InitData%233
                0x0000654c       0x1c
 .rodata.drvI2C0InitData
                0x0000654c       0x1c build/mcp9808/production/_ext/519814254/initialization.o
                0x0000654c                drvI2C0InitData

.rodata.drvI2C0PLibAPI%234
                0x00006568       0x1c
 .rodata.drvI2C0PLibAPI
                0x00006568       0x1c build/mcp9808/production/_ext/519814254/initialization.o
                0x00006568                drvI2C0PLibAPI

.text.vTaskPlaceOnEventList%235
                0x00006584       0x1c
 .text.vTaskPlaceOnEventList
                0x00006584       0x1c build/mcp9808/production/_ext/404212886/FreeRTOS_tasks.o
                0x00006584                vTaskPlaceOnEventList

.text.pvTaskIncrementMutexHeldCount%236
                0x000065a0       0x1c
 .text.pvTaskIncrementMutexHeldCount
                0x000065a0       0x1c build/mcp9808/production/_ext/404212886/FreeRTOS_tasks.o
                0x000065a0                pvTaskIncrementMutexHeldCount

.text.vfprintf%237
                0x000065bc       0x1c
 .text.vfprintf
                0x000065bc       0x1c c:/program files/microchip/xc32/v4.20/bin/bin/../../lib/gcc/pic32c/8.3.1/../../../../pic32c/lib/thumb/v7e-m+fp/hard\libc-musl.a(vfprintf.o)
                0x000065bc                vfprintf

.rodata%238     0x000065d8       0x1c
 .rodata        0x000065d8       0x1c c:/program files/microchip/xc32/v4.20/bin/bin/../../lib/gcc/pic32c/8.3.1/../../../../pic32c/lib/thumb/v7e-m+fp/hard\libc-musl.a(__printf_core.o)

.text.DRV_I2C_WriteTransferAdd%239
                0x000065f4       0x1a
 .text.DRV_I2C_WriteTransferAdd
                0x000065f4       0x1a build/mcp9808/production/_ext/136144951/drv_i2c.o
                0x000065f4                DRV_I2C_WriteTransferAdd

.text.sprintf%240
                0x0000660e       0x1a
 .text.sprintf  0x0000660e       0x1a c:/program files/microchip/xc32/v4.20/bin/bin/../../lib/gcc/pic32c/8.3.1/../../../../pic32c/lib/thumb/v7e-m+fp/hard\libc-musl.a(sprintf.o)
                0x0000660e                __sprintf_dis
                0x0000660e                sprintf
                0x0000660e                __sprintf_di

.text.OSAL_MUTEX_Create%241
                0x00006628       0x18
 .text.OSAL_MUTEX_Create
                0x00006628       0x18 build/mcp9808/production/_ext/1820763632/osal_freertos.o
                0x00006628                OSAL_MUTEX_Create

.text.OSAL_MUTEX_Unlock%242
                0x00006640       0x18
 .text.OSAL_MUTEX_Unlock
                0x00006640       0x18 build/mcp9808/production/_ext/1820763632/osal_freertos.o
                0x00006640                OSAL_MUTEX_Unlock

.text.SERCOM1_USART_WritePendingBytesGet%243
                0x00006658       0x18
 .text.SERCOM1_USART_WritePendingBytesGet
                0x00006658       0x18 build/mcp9808/production/_ext/1027107927/plib_sercom1_usart.o

.text.SERCOM1_USART_ReadCountGet%244
                0x00006670       0x18
 .text.SERCOM1_USART_ReadCountGet
                0x00006670       0x18 build/mcp9808/production/_ext/1027107927/plib_sercom1_usart.o
                0x00006670                SERCOM1_USART_ReadCountGet

.text._keyDownProcess%245
                0x00006688       0x18
 .text._keyDownProcess
                0x00006688       0x18 build/mcp9808/production/_ext/1427623807/sys_command.o

.text.CommandReset%246
                0x000066a0       0x18
 .text.CommandReset
                0x000066a0       0x18 build/mcp9808/production/_ext/1427623807/sys_command.o

.rodata.gDrvMCP9808InitObj%247
                0x000066b8       0x18
 .rodata.gDrvMCP9808InitObj
                0x000066b8       0x18 build/mcp9808/production/_ext/519814254/initialization.o
                0x000066b8                gDrvMCP9808InitObj

.rodata.sysConsole0UARTPlibAPI%248
                0x000066d0       0x18
 .rodata.sysConsole0UARTPlibAPI
                0x000066d0       0x18 build/mcp9808/production/_ext/519814254/initialization.o
                0x000066d0                sysConsole0UARTPlibAPI

.text.vTaskInternalSetTimeOutState%249
                0x000066e8       0x18
 .text.vTaskInternalSetTimeOutState
                0x000066e8       0x18 build/mcp9808/production/_ext/404212886/FreeRTOS_tasks.o
                0x000066e8                vTaskInternalSetTimeOutState

.text.prvIsQueueEmpty%250
                0x00006700       0x16
 .text.prvIsQueueEmpty
                0x00006700       0x16 build/mcp9808/production/_ext/404212886/queue.o

.text.vListInitialise%251
                0x00006716       0x16
 .text.vListInitialise
                0x00006716       0x16 build/mcp9808/production/_ext/404212886/list.o
                0x00006716                vListInitialise

.text.strcmp%252
                0x0000672c       0x16
 .text.strcmp   0x0000672c       0x16 c:/program files/microchip/xc32/v4.20/bin/bin/../../lib/gcc/pic32c/8.3.1/../../../../pic32c/lib/thumb/v7e-m+fp/hard\libc-musl.a(strcmp.o)
                0x0000672c                strcmp

.text.SERCOM1_USART_ReadFreeBufferCountGet%253
                0x00006744       0x14
 .text.SERCOM1_USART_ReadFreeBufferCountGet
                0x00006744       0x14 build/mcp9808/production/_ext/1027107927/plib_sercom1_usart.o
                0x00006744                SERCOM1_USART_ReadFreeBufferCountGet

.text.SERCOM1_USART_WriteFreeBufferCountGet%254
                0x00006758       0x14
 .text.SERCOM1_USART_WriteFreeBufferCountGet
                0x00006758       0x14 build/mcp9808/production/_ext/1027107927/plib_sercom1_usart.o
                0x00006758                SERCOM1_USART_WriteFreeBufferCountGet

.rodata.sysConsoleApi%255
                0x0000676c       0x14
 .rodata.sysConsoleApi
                0x0000676c       0x14 build/mcp9808/production/_ext/1427623807/sys_command.o
                0x0000676c                sysConsoleApi

.text.Console_UART_ResourceLock%256
                0x00006780       0x14
 .text.Console_UART_ResourceLock
                0x00006780       0x14 build/mcp9808/production/_ext/1884335987/sys_console_uart.o

.rodata.drvI2C0InterruptSources%257
                0x00006794       0x14
 .rodata.drvI2C0InterruptSources
                0x00006794       0x14 build/mcp9808/production/_ext/519814254/initialization.o
                0x00006794                drvI2C0InterruptSources

.text.vPortEnableVFP%258
                0x000067a8       0x14
 .text.vPortEnableVFP
                0x000067a8       0x14 build/mcp9808/production/_ext/246609638/port.o

.text.vPortExitCritical%259
                0x000067bc       0x14
 .text.vPortExitCritical
                0x000067bc       0x14 build/mcp9808/production/_ext/246609638/port.o
                0x000067bc                vPortExitCritical

.text.strchr%260
                0x000067d0       0x14
 .text.strchr   0x000067d0       0x14 c:/program files/microchip/xc32/v4.20/bin/bin/../../lib/gcc/pic32c/8.3.1/../../../../pic32c/lib/thumb/v7e-m+fp/hard\libc-musl.a(strchr.o)
                0x000067d0                strchr

.text.__init_stdout%261
                0x000067e4       0x14
 .text.__init_stdout
                0x000067e4       0x14 c:/program files/microchip/xc32/v4.20/bin/bin/../../lib/gcc/pic32c/8.3.1/../../../../pic32c/lib/thumb/v7e-m+fp/hard\libc-musl.a(stdout.o)
                0x000067e4                __init_stdout

.text.DRV_MCP9808_TransferEventHandlerSet%262
                0x000067f8       0x12
 .text.DRV_MCP9808_TransferEventHandlerSet
                0x000067f8       0x12 build/mcp9808/production/_ext/1243884746/drv_mcp9808.o
                0x000067f8                DRV_MCP9808_TransferEventHandlerSet

.text._DRV_I2C_RemoveTransferObjFromList%263
                0x0000680a       0x12
 .text._DRV_I2C_RemoveTransferObjFromList
                0x0000680a       0x12 build/mcp9808/production/_ext/136144951/drv_i2c.o

.text.NVIC_INT_Disable%264
                0x0000681c       0x12
 .text.NVIC_INT_Disable
                0x0000681c       0x12 build/mcp9808/production/_ext/1324973556/plib_nvic.o
                0x0000681c                NVIC_INT_Disable

.text.NVIC_INT_Restore%265
                0x0000682e       0x12
 .text.NVIC_INT_Restore
                0x0000682e       0x12 build/mcp9808/production/_ext/1324973556/plib_nvic.o
                0x0000682e                NVIC_INT_Restore

.text.vApplicationStackOverflowHook%266
                0x00006840       0x12
 .text.vApplicationStackOverflowHook
                0x00006840       0x12 build/mcp9808/production/_ext/519814254/freertos_hooks.o
                0x00006840                vApplicationStackOverflowHook

.text.vApplicationMallocFailedHook%267
                0x00006852       0x12
 .text.vApplicationMallocFailedHook
                0x00006852       0x12 build/mcp9808/production/_ext/519814254/freertos_hooks.o
                0x00006852                vApplicationMallocFailedHook

.text.memcpy%268
                0x00006864       0x12
 .text.memcpy   0x00006864       0x12 c:/program files/microchip/xc32/v4.20/bin/bin/../../lib/gcc/pic32c/8.3.1/../../../../pic32c/lib/thumb/v7e-m+fp/hard\libc-musl.a(memcpy.o)
                0x00006864                memcpy

.text.stpcpy%269
                0x00006876       0x12
 .text.stpcpy   0x00006876       0x12 c:/program files/microchip/xc32/v4.20/bin/bin/../../lib/gcc/pic32c/8.3.1/../../../../pic32c/lib/thumb/v7e-m+fp/hard\libc-musl.a(stpcpy.o)
                0x00006876                __stpcpy
                0x00006876                stpcpy

.text.BSP_Initialize%270
                0x00006888       0x10
 .text.BSP_Initialize
                0x00006888       0x10 build/mcp9808/production/_ext/1998409442/bsp.o
                0x00006888                BSP_Initialize

.text.NVMCTRL_Initialize%271
                0x00006898       0x10
 .text.NVMCTRL_Initialize
                0x00006898       0x10 build/mcp9808/production/_ext/1541565758/plib_nvmctrl.o
                0x00006898                NVMCTRL_Initialize

.text.IsCommandReady%272
                0x000068a8       0x10
 .text.IsCommandReady
                0x000068a8       0x10 build/mcp9808/production/_ext/1427623807/sys_command.o

.text._SYS_CMD_Tasks%273
                0x000068b8       0x10
 .text._SYS_CMD_Tasks
                0x000068b8       0x10 build/mcp9808/production/_ext/519814254/tasks.o
                0x000068b8                _SYS_CMD_Tasks

.text._APP_MCP9808_Tasks%274
                0x000068c8       0x10
 .text._APP_MCP9808_Tasks
                0x000068c8       0x10 build/mcp9808/production/_ext/519814254/tasks.o
                0x000068c8                _APP_MCP9808_Tasks

.text.vTaskSuspendAll%275
                0x000068d8       0x10
 .text.vTaskSuspendAll
                0x000068d8       0x10 build/mcp9808/production/_ext/404212886/FreeRTOS_tasks.o
                0x000068d8                vTaskSuspendAll

.text.memset%276
                0x000068e8       0x10
 .text.memset   0x000068e8       0x10 c:/program files/microchip/xc32/v4.20/bin/bin/../../lib/gcc/pic32c/8.3.1/../../../../pic32c/lib/thumb/v7e-m+fp/hard\libc-musl.a(memset.o)
                0x000068e8                memset

.text.strlen%277
                0x000068f8       0x10
 .text.strlen   0x000068f8       0x10 c:/program files/microchip/xc32/v4.20/bin/bin/../../lib/gcc/pic32c/8.3.1/../../../../pic32c/lib/thumb/v7e-m+fp/hard\libc-musl.a(strlen.o)
                0x000068f8                strlen

.rodata%278     0x00006908       0x20
 .rodata        0x00006908       0x10 c:/program files/microchip/xc32/v4.20/bin/bin/../../lib/gcc/pic32c/8.3.1/../../../../pic32c/lib/thumb/v7e-m+fp/hard\libc-musl.a(__fmt_a.o)
 .rodata        0x00006918       0x10 c:/program files/microchip/xc32/v4.20/bin/bin/../../lib/gcc/pic32c/8.3.1/../../../../pic32c/lib/thumb/v7e-m+fp/hard\libc-musl.a(__fmt_fp.o)

.text.__init_stdio%280
                0x00006928       0x10
 .text.__init_stdio
                0x00006928       0x10 c:/program files/microchip/xc32/v4.20/bin/bin/../../lib/gcc/pic32c/8.3.1/../../../../pic32c/lib/thumb/v7e-m+fp/hard\libc-musl.a(__init_stdio.o)
                0x00006928                __init_stdio_needed
                0x00006928                __init_stdio

.text.DRV_MCP9808_TemperatureGet%281
                0x00006938        0xe
 .text.DRV_MCP9808_TemperatureGet
                0x00006938        0xe build/mcp9808/production/_ext/1243884746/drv_mcp9808.o
                0x00006938                DRV_MCP9808_TemperatureGet

.text.main%282  0x00006946        0xe
 .text.main     0x00006946        0xe build/mcp9808/production/_ext/1360937237/main.o
                0x00006946                main

.text.tolower%283
                0x00006954        0xe
 .text.tolower  0x00006954        0xe c:/program files/microchip/xc32/v4.20/bin/bin/../../lib/gcc/pic32c/8.3.1/../../../../pic32c/lib/thumb/v7e-m+fp/hard\libc-musl.a(tolower.o)
                0x00006954                tolower

.text.toupper%284
                0x00006962        0xe
 .text.toupper  0x00006962        0xe c:/program files/microchip/xc32/v4.20/bin/bin/../../lib/gcc/pic32c/8.3.1/../../../../pic32c/lib/thumb/v7e-m+fp/hard\libc-musl.a(toupper.o)
                0x00006962                toupper

.text.SERCOM6_I2C_CallbackRegister%285
                0x000062a4        0xc
 .text.SERCOM6_I2C_CallbackRegister
                0x000062a4        0xc build/mcp9808/production/_ext/1646999677/plib_sercom6_i2c_master.o
                0x000062a4                SERCOM6_I2C_CallbackRegister

.text.SERCOM6_I2C_ErrorGet%286
                0x00006970        0xc
 .text.SERCOM6_I2C_ErrorGet
                0x00006970        0xc build/mcp9808/production/_ext/1646999677/plib_sercom6_i2c_master.o
                0x00006970                SERCOM6_I2C_ErrorGet

.text.SYS_CMD_MESSAGE%287
                0x0000697c        0xc
 .text.SYS_CMD_MESSAGE
                0x0000697c        0xc build/mcp9808/production/_ext/1427623807/sys_command.o
                0x0000697c                SYS_CMD_MESSAGE

.rodata.sysConsole0Init%288
                0x00006988        0xc
 .rodata.sysConsole0Init
                0x00006988        0xc build/mcp9808/production/_ext/519814254/initialization.o
                0x00006988                sysConsole0Init

.text.vTaskMissedYield%289
                0x00006994        0xc
 .text.vTaskMissedYield
                0x00006994        0xc build/mcp9808/production/_ext/404212886/FreeRTOS_tasks.o
                0x00006994                vTaskMissedYield

.text.CMD_Read_Temperature%290
                0x000069a0        0xc
 .text.CMD_Read_Temperature
                0x000069a0        0xc build/mcp9808/production/_ext/1360937237/app_mcp9808.o
                0x000069a0                CMD_Read_Temperature

.text.CMD_Read_ID%291
                0x000069ac        0xc
 .text.CMD_Read_ID
                0x000069ac        0xc build/mcp9808/production/_ext/1360937237/app_mcp9808.o
                0x000069ac                CMD_Read_ID

.text.CMD_Write_Reg%292
                0x000069b8        0xc
 .text.CMD_Write_Reg
                0x000069b8        0xc build/mcp9808/production/_ext/1360937237/app_mcp9808.o
                0x000069b8                CMD_Write_Reg

.text.vsprintf%293
                0x000069c4        0xc
 .text.vsprintf
                0x000069c4        0xc c:/program files/microchip/xc32/v4.20/bin/bin/../../lib/gcc/pic32c/8.3.1/../../../../pic32c/lib/thumb/v7e-m+fp/hard\libc-musl.a(vsprintf.o)
                0x000069c4                vsprintf

.text.strcpy%294
                0x000069d0        0xc
 .text.strcpy   0x000069d0        0xc c:/program files/microchip/xc32/v4.20/bin/bin/../../lib/gcc/pic32c/8.3.1/../../../../pic32c/lib/thumb/v7e-m+fp/hard\libc-musl.a(strcpy.o)
                0x000069d0                strcpy

.text.strncpy%295
                0x000069dc        0xc
 .text.strncpy  0x000069dc        0xc c:/program files/microchip/xc32/v4.20/bin/bin/../../lib/gcc/pic32c/8.3.1/../../../../pic32c/lib/thumb/v7e-m+fp/hard\libc-musl.a(strncpy.o)
                0x000069dc                strncpy

.text.OSAL_Malloc%296
                0x000069e8        0x8
 .text.OSAL_Malloc
                0x000069e8        0x8 build/mcp9808/production/_ext/1820763632/osal_freertos.o
                0x000069e8                OSAL_Malloc

.text.SERCOM1_USART_WriteCountGet%297
                0x000069f0        0x8
 .text.SERCOM1_USART_WriteCountGet
                0x000069f0        0x8 build/mcp9808/production/_ext/1027107927/plib_sercom1_usart.o
                0x000069f0                SERCOM1_USART_WriteCountGet

.text.SYS_INT_Disable%298
                0x000069f8        0x8
 .text.SYS_INT_Disable
                0x000069f8        0x8 build/mcp9808/production/_ext/1587138469/sys_int.o
                0x000069f8                SYS_INT_Disable

.text.SYS_INT_Restore%299
                0x00006a00        0x8
 .text.SYS_INT_Restore
                0x00006a00        0x8 build/mcp9808/production/_ext/1587138469/sys_int.o
                0x00006a00                SYS_INT_Restore

.rodata%300     0x00006a08        0x8
 .rodata        0x00006a08        0x8 build/mcp9808/production/_ext/404212886/FreeRTOS_tasks.o

.text.putc%301  0x00006a10        0x8
 .text.putc     0x00006a10        0x8 c:/program files/microchip/xc32/v4.20/bin/bin/../../lib/gcc/pic32c/8.3.1/../../../../pic32c/lib/thumb/v7e-m+fp/hard\libc-musl.a(putc.o)
                0x00006a10                putc
                0x00006a10                fputc
                0x00006a10                _IO_putc
                0x00006a10                putc_unlocked

.text.__dummy%302
                0x00006a18        0x8
 .text.__dummy  0x00006a18        0x8 c:/program files/microchip/xc32/v4.20/bin/bin/../../lib/gcc/pic32c/8.3.1/../../../../pic32c/lib/thumb/v7e-m+fp/hard\libc-musl.a(stdout.o)
                0x00006a18                __get_stdout

.text.__aeabi_dsub%303
                0x00006a20        0x8
 .text.__aeabi_dsub
                0x00006a20        0x8 c:/program files/microchip/xc32/v4.20/bin/bin/../../lib/gcc/pic32c/8.3.1/../../../../pic32c/lib/thumb/v7e-m+fp/hard\libm-emfloat.a(__aeabi_dsub.o)
                0x00006a20                __aeabi_dsub

.rodata%304     0x00006a28        0x7
 .rodata        0x00006a28        0x7 c:/program files/microchip/xc32/v4.20/bin/bin/../../lib/gcc/pic32c/8.3.1/../../../../pic32c/lib/thumb/v7e-m+fp/hard\libc-musl.a(__fmt_s.o)

.text.write%305
                0x00006a30        0x6
 .text.write    0x00006a30        0x6 build/mcp9808/production/_ext/605370968/xc32_monitor.o
                0x00006a30                write

.text.vListInitialiseItem%306
                0x00006a36        0x6
 .text.vListInitialiseItem
                0x00006a36        0x6 build/mcp9808/production/_ext/404212886/list.o
                0x00006a36                vListInitialiseItem

.text.__fwrite_min%307
                0x00006a3c        0x6
 .text.__fwrite_min
                0x00006a3c        0x6 c:/program files/microchip/xc32/v4.20/bin/bin/../../lib/gcc/pic32c/8.3.1/../../../../pic32c/lib/thumb/v7e-m+fp/hard\libc-musl.a(fwrite.o)
                0x00006a3c                __fwrite

.text.Console_UART_Flush%308
                0x0000028c        0x4
 .text.Console_UART_Flush
                0x0000028c        0x4 build/mcp9808/production/_ext/1884335987/sys_console_uart.o
                0x0000028c                Console_UART_Flush

.rodata.sysConsole0UARTInitData%309
                0x00000754        0x4
 .rodata.sysConsole0UARTInitData
                0x00000754        0x4 build/mcp9808/production/_ext/519814254/initialization.o
                0x00000754                sysConsole0UARTInitData

.text.__pic32c_data_initialization%310
                0x00004ecc        0x4
 .text.__pic32c_data_initialization
                0x00004ecc        0x4 c:/program files/microchip/xc32/v4.20/bin/bin/../../lib/gcc/pic32c/8.3.1/../../../../pic32c/lib/thumb/v7e-m+fp/hard\libpic32c.a(data_init_wrapper.o)
                0x00004ecc                __pic32c_data_initialization

.text%311       0x00006a44        0x4
 .text          0x00006a44        0x4 c:/program files/microchip/xc32/v4.20/bin/bin/../../lib/gcc/pic32c/8.3.1/thumb/v7e-m+fp/hard\libgcc.a(_dvmd_tls.o)
                0x00006a44                __aeabi_idiv0
                0x00006a44                __aeabi_ldiv0

.text.EVSYS_Initialize%312
                0x00003322        0x2
 .text.EVSYS_Initialize
                0x00003322        0x2 build/mcp9808/production/_ext/1883794006/plib_evsys.o
                0x00003322                EVSYS_Initialize

.text.Console_UART_Tasks%313
                0x00004b82        0x2
 .text.Console_UART_Tasks
                0x00004b82        0x2 build/mcp9808/production/_ext/1884335987/sys_console_uart.o
                0x00004b82                Console_UART_Tasks

.text.Dummy_App_Func%314
                0x0000538a        0x2
 .text.Dummy_App_Func
                0x0000538a        0x2 build/mcp9808/production/_ext/519814254/startup_xc32.o
                0x0000538a                _on_reset
                0x0000538a                _on_bootstrap
                0x0000538a                __xc32_on_reset
                0x0000538a                Dummy_App_Func
                0x0000538a                __xc32_on_bootstrap

.text.Dummy_Handler%315
                0x00005972        0x2
 .text.Dummy_Handler
                0x00005972        0x2 build/mcp9808/production/_ext/519814254/interrupts.o
                0x00005972                EIC_EXTINT_9_Handler
                0x00005972                TCC0_MC5_Handler
                0x00005972                SERCOM0_2_Handler
                0x00005972                USB_SOF_HSOF_Handler
                0x00005972                TCC4_OTHER_Handler
                0x00005972                TCC2_MC2_Handler
                0x00005972                EVSYS_0_Handler
                0x00005972                TRNG_Handler
                0x00005972                TC2_Handler
                0x00005972                USB_TRCPT0_Handler
                0x00005972                DAC_OTHER_Handler
                0x00005972                AC_Handler
                0x00005972                DAC_EMPTY_0_Handler
                0x00005972                DMAC_OTHER_Handler
                0x00005972                EIC_EXTINT_5_Handler
                0x00005972                SERCOM3_1_Handler
                0x00005972                SERCOM4_OTHER_Handler
                0x00005972                SERCOM3_2_Handler
                0x00005972                EIC_EXTINT_6_Handler
                0x00005972                TC7_Handler
                0x00005972                TCC4_MC0_Handler
                0x00005972                EVSYS_3_Handler
                0x00005972                QSPI_Handler
                0x00005972                TCC2_MC0_Handler
                0x00005972                PDEC_OTHER_Handler
                0x00005972                TCC3_MC0_Handler
                0x00005972                PDEC_MC1_Handler
                0x00005972                TCC2_MC1_Handler
                0x00005972                OSCCTRL_XOSC1_Handler
                0x00005972                PDEC_MC0_Handler
                0x00005972                EIC_EXTINT_4_Handler
                0x00005972                EIC_EXTINT_7_Handler
                0x00005972                SERCOM0_OTHER_Handler
                0x00005972                EVSYS_OTHER_Handler
                0x00005972                SERCOM0_0_Handler
                0x00005972                RTC_Handler
                0x00005972                SERCOM4_0_Handler
                0x00005972                TCC1_MC0_Handler
                0x00005972                TCC2_OTHER_Handler
                0x00005972                EIC_EXTINT_11_Handler
                0x00005972                SUPC_BODDET_Handler
                0x00005972                EIC_EXTINT_14_Handler
                0x00005972                OSC32KCTRL_Handler
                0x00005972                EVSYS_1_Handler
                0x00005972                TC6_Handler
                0x00005972                TCC4_MC1_Handler
                0x00005972                DMAC_0_Handler
                0x00005972                SUPC_OTHER_Handler
                0x00005972                WDT_Handler
                0x00005972                CAN0_Handler
                0x00005972                EIC_EXTINT_15_Handler
                0x00005972                EIC_EXTINT_1_Handler
                0x00005972                TCC3_MC1_Handler
                0x00005972                SERCOM5_0_Handler
                0x00005972                TC4_Handler
                0x00005972                TC1_Handler
                0x00005972                TCC1_MC1_Handler
                0x00005972                EIC_EXTINT_0_Handler
                0x00005972                TCC1_OTHER_Handler
                0x00005972                PAC_Handler
                0x00005972                SERCOM4_1_Handler
                0x00005972                TC3_Handler
                0x00005972                Dummy_Handler
                0x00005972                DAC_RESRDY_0_Handler
                0x00005972                SERCOM5_1_Handler
                0x00005972                DMAC_2_Handler
                0x00005972                TCC0_MC4_Handler
                0x00005972                USB_TRCPT1_Handler
                0x00005972                SERCOM0_1_Handler
                0x00005972                TCC0_MC3_Handler
                0x00005972                EIC_EXTINT_12_Handler
                0x00005972                OSCCTRL_DPLL0_Handler
                0x00005972                SERCOM7_1_Handler
                0x00005972                SERCOM5_OTHER_Handler
                0x00005972                PM_Handler
                0x00005972                OSCCTRL_DFLL_Handler
                0x00005972                SERCOM7_0_Handler
                0x00005972                DAC_RESRDY_1_Handler
                0x00005972                DMAC_1_Handler
                0x00005972                USB_OTHER_Handler
                0x00005972                GMAC_Handler
                0x00005972                SDHC1_Handler
                0x00005972                SERCOM7_2_Handler
                0x00005972                CAN1_Handler
                0x00005972                TCC0_OTHER_Handler
                0x00005972                EIC_EXTINT_10_Handler
                0x00005972                TCC1_MC3_Handler
                0x00005972                OSCCTRL_XOSC0_Handler
                0x00005972                TCC0_MC0_Handler
                0x00005972                EIC_EXTINT_2_Handler
                0x00005972                SDHC0_Handler
                0x00005972                I2S_Handler
                0x00005972                PCC_Handler
                0x00005972                TCC3_OTHER_Handler
                0x00005972                EIC_EXTINT_13_Handler
                0x00005972                PUKCC_Handler
                0x00005972                SERCOM2_1_Handler
                0x00005972                SERCOM3_0_Handler
                0x00005972                SERCOM4_2_Handler
                0x00005972                TCC1_MC2_Handler
                0x00005972                ADC1_RESRDY_Handler
                0x00005972                NVMCTRL_1_Handler
                0x00005972                SERCOM5_2_Handler
                0x00005972                SERCOM2_2_Handler
                0x00005972                DAC_EMPTY_1_Handler
                0x00005972                ADC1_OTHER_Handler
                0x00005972                OSCCTRL_DPLL1_Handler
                0x00005972                EIC_EXTINT_3_Handler
                0x00005972                SERCOM3_OTHER_Handler
                0x00005972                EIC_EXTINT_8_Handler
                0x00005972                NVMCTRL_0_Handler
                0x00005972                ADC0_RESRDY_Handler
                0x00005972                ADC0_OTHER_Handler
                0x00005972                MCLK_Handler
                0x00005972                SERCOM7_OTHER_Handler
                0x00005972                EVSYS_2_Handler
                0x00005972                SERCOM2_OTHER_Handler
                0x00005972                FREQM_Handler
                0x00005972                TC0_Handler
                0x00005972                TCC0_MC1_Handler
                0x00005972                DMAC_3_Handler
                0x00005972                RAMECC_Handler
                0x00005972                TC5_Handler
                0x00005972                SERCOM2_0_Handler
                0x00005972                AES_Handler
                0x00005972                ICM_Handler
                0x00005972                TCC0_MC2_Handler

.text.NonMaskableInt_Handler%316
                0x00005b6a        0x2
 .text.NonMaskableInt_Handler
                0x00005b6a        0x2 build/mcp9808/production/_ext/519814254/exceptions.o
                0x00005b6a                NonMaskableInt_Handler

.text.HardFault_Handler%317
                0x000063a6        0x2
 .text.HardFault_Handler
                0x000063a6        0x2 build/mcp9808/production/_ext/519814254/exceptions.o
                0x000063a6                HardFault_Handler

.text.DebugMonitor_Handler%318
                0x00006742        0x2
 .text.DebugMonitor_Handler
                0x00006742        0x2 build/mcp9808/production/_ext/519814254/exceptions.o
                0x00006742                DebugMonitor_Handler

.text.MemoryManagement_Handler%319
                0x00006a42        0x2
 .text.MemoryManagement_Handler
                0x00006a42        0x2 build/mcp9808/production/_ext/519814254/exceptions.o
                0x00006a42                MemoryManagement_Handler

.text.BusFault_Handler%320
                0x00006a48        0x2
 .text.BusFault_Handler
                0x00006a48        0x2 build/mcp9808/production/_ext/519814254/exceptions.o
                0x00006a48                BusFault_Handler

.text.UsageFault_Handler%321
                0x00006a4a        0x2
 .text.UsageFault_Handler
                0x00006a4a        0x2 build/mcp9808/production/_ext/519814254/exceptions.o
                0x00006a4a                UsageFault_Handler

.text.vPortFree%322
                0x00006a4c        0x2
 .text.vPortFree
                0x00006a4c        0x2 build/mcp9808/production/_ext/1665200909/heap_1.o
                0x00006a4c                vPortFree

.text.__dummy%323
                0x00006a4e        0x4
 .text.__dummy  0x00006a4e        0x2 c:/program files/microchip/xc32/v4.20/bin/bin/../../lib/gcc/pic32c/8.3.1/../../../../pic32c/lib/thumb/v7e-m+fp/hard\libc-musl.a(__libc_start_main.o)
                0x00006a4e                __init_host
 .text.__dummy  0x00006a50        0x2 c:/program files/microchip/xc32/v4.20/bin/bin/../../lib/gcc/pic32c/8.3.1/../../../../pic32c/lib/thumb/v7e-m+fp/hard\libc-musl.a(__init_stdio.o)
                0x00006a50                __init_stdin
                0x00006a50                __init_stderr
